#<SYMDEFS># ARM Linker, 4.1 [Build 713]: Last Updated: Thu Aug 27 22:21:39 2015
0x00000000 N _printf_flags
0x00000000 N _printf_return_value
0x00000000 N _printf_sizespec
0x00000000 N _printf_widthprec
0x2e058000 D mmu_l1_pagetable
0x2e05c000 D mmu_l2_pagetable
0x2e05d000 D l2_pagetable_address
0x80102014 D params_buf
0x8010fa40 D dci_core_info
0x8010fa58 D ms_devices
0x8ff00000 A __main
0x8ff00000 A _main
0x8ff00050 A sbl_loop_here
0x8ff000e1 T _printf_d
0x8ff000e1 T _printf_percent
0x8ff000e7 T _printf_u
0x8ff000ed T _printf_x
0x8ff000f3 T _printf_c
0x8ff000f9 T _printf_s
0x8ff000ff T _printf_percent_end
0x8ff00104 A __aeabi_uldivmod
0x8ff00104 A _ll_udiv
0x8ff00118 A _ll_udiv_donemoving
0x8ff00435 T __aeabi_llsl
0x8ff00435 T _ll_shift_l
0x8ff0045d T __2snprintf
0x8ff00495 T _printf_str
0x8ff004e9 T _printf_int_dec
0x8ff0055d T _printf_int_hex
0x8ff0055d T _printf_longlong_hex
0x8ff005b9 T __printf
0x8ff00687 T abort
0x8ff006a1 T memcmp
0x8ff006fd T strlen
0x8ff00738 A memcpy
0x8ff00744 A __aeabi_memcpy
0x8ff00744 A __rt_memcpy
0x8ff007f8 A _memcpy_lastbytes
0x8ff00818 A __aeabi_memmove
0x8ff00818 A __rt_memmove
0x8ff008cc A __memmove_lastfew
0x8ff008ec A __aeabi_memcpy4
0x8ff008ec A __aeabi_memcpy8
0x8ff008ec A __rt_memcpy_w
0x8ff00938 A _memcpy_lastbytes_aligned
0x8ff00950 A __aeabi_memmove4
0x8ff00950 A __aeabi_memmove8
0x8ff00950 A __rt_memmove_w
0x8ff0097c A __memmove_aligned
0x8ff009b8 A __memmove_lastfew_aligned
0x8ff009d9 T __aeabi_memset
0x8ff009e9 T __aeabi_memclr
0x8ff009e9 T __rt_memclr
0x8ff009ed T _memset
0x8ff00a35 T __aeabi_memclr4
0x8ff00a35 T __aeabi_memclr8
0x8ff00a35 T __rt_memclr_w
0x8ff00a39 T _memset_w
0x8ff00a84 A strcmp
0x8ff00b2d T __aeabi_uread4
0x8ff00b2d T __rt_uread4
0x8ff00b43 T __aeabi_uwrite4
0x8ff00b43 T __rt_uwrite4
0x8ff00b58 A __aeabi_idiv
0x8ff00b58 A __aeabi_idivmod
0x8ff00d85 T _sys_exit
0x8ff00d91 T __aeabi_idiv0
0x8ff00d95 T __aeabi_ldiv0
0x8ff00d99 T _printf_int_common
0x8ff00e57 T _printf_char_common
0x8ff00e7d T _sputc
0x8ff00e87 T _snputc
0x8ff00e97 T _printf_cs_common
0x8ff00eab T _printf_char
0x8ff00ebb T _printf_string
0x8ff00ec3 T __rt_SIGABRT
0x8ff00ecb T __rt_SIGPVFN
0x8ff00ed4 A __rt_udiv10
0x8ff00f01 T __I$use$semihosting
0x8ff00f01 T __use_no_semihosting_swi
0x8ff00f03 T __rt_div0
0x8ff00f03 T __semihosting_library_function
0x8ff00f0d T __rt_SIGFPE
0x8ff00f14 A __aeabi_uidiv
0x8ff00f14 A __aeabi_uidivmod
0x8ff00f44 A mmu_invalidate_instruction_cache
0x8ff00f60 A mmu_invalidate_data_cache
0x8ff00f90 A mmu_enable_instruction_cache
0x8ff00fb4 A cache_mmu_disable
0x8ff00ff4 A cache_mmu_re_enable
0x8ff01028 A memory_barrier
0x8ff01030 A cache_set_memory_barrier_location
0x8ff010d0 A dcache_flush_region
0x8ff01130 A dcache_inval_region
0x8ff011a4 A dcache_clean_region
0x8ff01204 A mmu_flush_cache
0x8ff012bc A boot_cache_mmu_init
0x8ff01300 A boot_tz_smc
0x8ff0130c A boot_check_sec_mode
0x8ff01324 A boot_fastcall_tz
0x8ff01388 A qmemset
0x8ff01484 A DALFW_LockedSwapW
0x8ff01490 A DALFW_LockedGetW
0x8ff0149c A DALFW_LockedConditionalSetW
0x8ff014a9 T spin_unlock_internal_asm
0x8ff014ac A spin_unlock_internal_asm_32
0x8ff014c9 T spin_lock_internal_asm
0x8ff014cc A spin_lock_internal_asm_32
0x8ff01500 A hal_sdcc_memcpy32
0x8ff0151c A hal_sdcc_memcpy_read
0x8ff0153c A hal_sdcc_memcpy_write
0x8ff0158c A AdcMapLinearInt32toInt32
0x8ff01658 A Adc_AddDeviceQueueRequest
0x8ff017e4 A Adc_Close
0x8ff01950 A Adc_DalAdc_Attach
0x8ff01aec A Adc_DeviceDeInit
0x8ff01be8 A Adc_DeviceInit
0x8ff02350 A Adc_DriverDeInit
0x8ff02358 A Adc_DriverInit
0x8ff02360 A Adc_GetAdcInputProperties
0x8ff02428 A Adc_GetRemoteDeviceHandle
0x8ff02474 A Adc_Info
0x8ff0247c A Adc_Open
0x8ff02484 A Adc_PowerEvent
0x8ff025ec A Adc_RequestConversion
0x8ff0283c A Adc_RequestRecalibration
0x8ff029c8 A CeCLIOCtlCipherRegXfer
0x8ff02ac8 A CeCLIOCtlGetCipherCntx
0x8ff02b5c A CeCLIOCtlGetHashCntx
0x8ff02be4 A CeCLIOCtlHashRegXfer
0x8ff02d10 A CeCLIOCtlSetCipherCntx
0x8ff03430 A CeCLIOCtlSetHashCntx
0x8ff035f8 A CeCLReverseBytes
0x8ff03654 A CeClClockDisable
0x8ff03670 A CeClClockEnable
0x8ff036cc A CeClGetCryptoEngineVersion
0x8ff036fc A CeClGetPropertyValue
0x8ff03794 A CeClIOCtlCipher
0x8ff03850 A CeClIOCtlHash
0x8ff0390c A CeClInit
0x8ff03958 A CeClReset
0x8ff039c4 A CeClSetEndianMode
0x8ff03a04 A CeELCipherRegXfer
0x8ff03a48 A CeELHashRegXfer
0x8ff03a84 A CeElDMSupported
0x8ff03a8c A CeElDisableClock
0x8ff03aa8 A CeElEnableClock
0x8ff03ac4 A CeElGetXferModeList
0x8ff03ae8 A CeElGetXferfunction
0x8ff03b0c A CeElInit
0x8ff03b14 A CeElMemcpy
0x8ff03b24 A CeElMemoryBarrier
0x8ff03b34 A CeElMemset
0x8ff03b44 A CeElMutexEnter
0x8ff03b4c A CeElMutexExit
0x8ff03b54 A CeElRegXferFunction
0x8ff03c08 A CeElfree
0x8ff03c18 A CeElfree_Env
0x8ff03c50 A CeElmalloc
0x8ff03c60 A CeElmalloc_Env
0x8ff03ce8 A CeMLHashDeInit
0x8ff03d28 A CeMLHashFinal
0x8ff03e10 A CeMLHashInit
0x8ff03f30 A CeMLHashUpdate
0x8ff04098 A CeMLInternalInit
0x8ff04104 A CeMLReverseBytes
0x8ff04160 A CeMlHashUpdate
0x8ff0430c A ChipInfo_Close
0x8ff04314 A ChipInfo_DalChipInfo_Attach
0x8ff0441c A ChipInfo_DeviceDeInit
0x8ff04424 A ChipInfo_DeviceInit
0x8ff0442c A ChipInfo_DriverDeInit
0x8ff04454 A ChipInfo_DriverInit
0x8ff045e0 A ChipInfo_GetChipFamily
0x8ff045f8 A ChipInfo_GetChipId
0x8ff04610 A ChipInfo_GetChipIdString
0x8ff04634 A ChipInfo_GetChipVersion
0x8ff0464c A ChipInfo_GetFamily
0x8ff04684 A ChipInfo_GetFamilyByPart
0x8ff046a8 A ChipInfo_GetModemSupport
0x8ff046c0 A ChipInfo_GetPart
0x8ff04714 A ChipInfo_GetRawChipId
0x8ff0472c A ChipInfo_GetRawChipVersion
0x8ff04744 A ChipInfo_GetRawPart
0x8ff0479c A ChipInfo_GetRawVersion
0x8ff047f4 A ChipInfo_GetVersion
0x8ff04a30 A ChipInfo_Info
0x8ff04a38 A ChipInfo_Open
0x8ff04a40 A ChipInfo_PowerEvent
0x8ff04a48 A Clock_BIST
0x8ff04b68 A Clock_CalcClockFrequency
0x8ff04b94 A Clock_ConfigClock
0x8ff04bec A Clock_ConfigSource
0x8ff04c40 A Clock_DeviceAttach
0x8ff04cf0 A Clock_DisableClock
0x8ff04db8 A Clock_DisableClockDomain
0x8ff04e30 A Clock_DisablePowerDomain
0x8ff04ee0 A Clock_DisableSource
0x8ff04fb4 A Clock_DriverDeInit
0x8ff05000 A Clock_DriverInit
0x8ff05334 A Clock_EnableClock
0x8ff0545c A Clock_EnableClockDomain
0x8ff054dc A Clock_EnablePowerDomain
0x8ff05570 A Clock_EnableSource
0x8ff05768 A Clock_GetClockFrequency
0x8ff05838 A Clock_GetClockId
0x8ff058ac A Clock_GetPowerDomainId
0x8ff05920 A Clock_GetPropertyValue
0x8ff05954 A Clock_InitCore
0x8ff05e6c A Clock_InitImage
0x8ff05fb8 A Clock_InitSource
0x8ff060bc A Clock_InitSources
0x8ff062a8 A Clock_InitVoltage
0x8ff062b0 A Clock_InvertClock
0x8ff0632c A Clock_IsClockEnabled
0x8ff06370 A Clock_IsClockOn
0x8ff063b4 A Clock_MapHWIORegion
0x8ff063f0 A Clock_PostInit
0x8ff063f8 A Clock_ResetClock
0x8ff064c8 A Clock_SelectExternalSource
0x8ff06564 A Clock_SetClockConfig
0x8ff066a0 A Clock_SetClockDivider
0x8ff0671c A Clock_SetClockFrequency
0x8ff06868 A Clock_SetUARTBaudClock
0x8ff06c50 A Clock_TestClock
0x8ff07704 A Clock_VoltageRequest
0x8ff07a08 A DALFW_AddRef
0x8ff07a40 A DALFW_AttachToDevice
0x8ff07b84 A DALFW_LockSpinLockExt
0x8ff07bc0 A DALFW_LockedExchangeW
0x8ff07bf4 A DALFW_Q_Check
0x8ff07c10 A DALFW_Q_Delete
0x8ff07c70 A DALFW_Q_Get
0x8ff07cb4 A DALFW_Q_Init
0x8ff07cc4 A DALFW_Q_Next
0x8ff07cd8 A DALFW_Q_Put
0x8ff07cf8 A DALFW_Release
0x8ff07d84 A DALFW_TryLockSpinLockExt
0x8ff07dcc A DALFW_UnLockSpinLockExt
0x8ff07dd8 A DALFW_memcpy
0x8ff07ddc A DALFW_memset
0x8ff07dec A DALGLBCTXT_AllocCtxt
0x8ff07e80 A DALGLBCTXT_FindCtxt
0x8ff07edc A DALGLBCTXT_Init
0x8ff080d4 A DALGLBCTXT_LockEx
0x8ff0820c A DALGLBCTXT_UnLock
0x8ff08264 A DALSYS_BusyWait
0x8ff08268 A DALSYS_DestroyObject
0x8ff08270 A DALSYS_EventCreate
0x8ff08294 A DALSYS_EventCtrlEx
0x8ff082ec A DALSYS_EventMultipleWait
0x8ff082f8 A DALSYS_Free
0x8ff08300 A DALSYS_GetDALPropertyHandle
0x8ff08304 A DALSYS_GetPropDir
0x8ff08318 A DALSYS_GetPropStructPtrArray
0x8ff08328 A DALSYS_GetPropertyValue
0x8ff0832c A DALSYS_InitMod
0x8ff08378 A DALSYS_LogEvent
0x8ff08384 A DALSYS_Malloc
0x8ff083c4 A DALSYS_MemInfo
0x8ff08408 A DALSYS_MemRegionAlloc
0x8ff084ac A DALSYS_SetupCallbackEvent
0x8ff084cc A DALSYS_SyncCreate
0x8ff084e8 A DALSYS_SyncEnter
0x8ff084ec A DALSYS_SyncLeave
0x8ff084f0 A DALTLMMState_Init
0x8ff085e8 A DALTLMMState_MacroToStruct
0x8ff0860c A DALTLMMState_StructToMacro
0x8ff08644 A DAL_DeviceAttach
0x8ff086a0 A DAL_DeviceAttachEx
0x8ff08710 A DAL_DeviceAttachLocal
0x8ff08784 A DAL_DeviceDetach
0x8ff088d4 A HAL_clk_BusyWait
0x8ff088ec A HAL_clk_CalcClockFreq
0x8ff08cc0 A HAL_clk_ClockControlCheckInvIsOnMask
0x8ff08cf0 A HAL_clk_ClockControlCheckIsEnabledMask
0x8ff08d0c A HAL_clk_ClockControlClearEnableMask
0x8ff08d20 A HAL_clk_ClockControlSetEnableMask
0x8ff08d34 A HAL_clk_ClockControlSetInvertMask
0x8ff08d58 A HAL_clk_ClockControlSetResetMask
0x8ff08d7c A HAL_clk_ConfigClock
0x8ff08d9c A HAL_clk_ConfigClockDivider
0x8ff08dbc A HAL_clk_ConfigClockMux
0x8ff08dd0 A HAL_clk_ConfigPLL
0x8ff08dfc A HAL_clk_ConfigSource
0x8ff08e28 A HAL_clk_DetectClockConfig
0x8ff08e48 A HAL_clk_DetectClockMuxConfig
0x8ff08e74 A HAL_clk_DisableClock
0x8ff08e94 A HAL_clk_DisableClockDomain
0x8ff08f1c A HAL_clk_DisablePowerDomain
0x8ff08f30 A HAL_clk_DisableSource
0x8ff08f5c A HAL_clk_DisableSourceVote
0x8ff08f88 A HAL_clk_EnableClock
0x8ff08fa8 A HAL_clk_EnableClockDomain
0x8ff09030 A HAL_clk_EnablePowerDomain
0x8ff09044 A HAL_clk_EnableSource
0x8ff09070 A HAL_clk_EnableSourceVote
0x8ff09238 A HAL_clk_GetChipId
0x8ff09248 A HAL_clk_GetChipVersion
0x8ff09258 A HAL_clk_GetClockName
0x8ff09268 A HAL_clk_GetClocksInDomain
0x8ff09278 A HAL_clk_GetHWIOBases
0x8ff0928c A HAL_clk_GetNextClockDomain
0x8ff092a8 A HAL_clk_GetNextDebugDesc
0x8ff092c4 A HAL_clk_GetNextPowerDomain
0x8ff092e0 A HAL_clk_GetNumberOfClockDomains
0x8ff092f0 A HAL_clk_GetNumberOfClocks
0x8ff09300 A HAL_clk_GetNumberOfPowerDomains
0x8ff09310 A HAL_clk_GetPowerDomainName
0x8ff09e64 A HAL_clk_Init
0x8ff09ec0 A HAL_clk_InstallClockDomain
0x8ff09f98 A HAL_clk_InstallHFPLL
0x8ff09fa4 A HAL_clk_InstallSR2PLL
0x8ff0a014 A HAL_clk_InstallSRPLL
0x8ff0a084 A HAL_clk_InstallSource
0x8ff0a09c A HAL_clk_InvertClock
0x8ff0a0bc A HAL_clk_IsClockEnabled
0x8ff0a0dc A HAL_clk_IsClockOn
0x8ff0a0fc A HAL_clk_IsClockSupported
0x8ff0a190 A HAL_clk_IsPowerDomainEnabled
0x8ff0a264 A HAL_clk_PSSLevel2MuxSourceMapToHW
0x8ff0a298 A HAL_clk_PSSSourceMapFromHW
0x8ff0a304 A HAL_clk_PSSSourceMapToHW
0x8ff0a364 A HAL_clk_PlatformInitCFPB
0x8ff0a37c A HAL_clk_PlatformInitDFab
0x8ff0a3d0 A HAL_clk_PlatformInitGSBI
0x8ff0a4c0 A HAL_clk_PlatformInitPMICSSBI
0x8ff0a4d8 A HAL_clk_PlatformInitSDC
0x8ff0a528 A HAL_clk_PlatformInitSFab
0x8ff0a540 A HAL_clk_PlatformInitSources
0x8ff0a5f8 A HAL_clk_PlatformInitUSBFS
0x8ff0a610 A HAL_clk_PlatformInitUSBHS
0x8ff0a6ac A HAL_clk_ResetClock
0x8ff0a8f4 A HAL_clk_SDCSourceMapFromHW
0x8ff0a960 A HAL_clk_SDCSourceMapToHW
0x8ff0bd18 A HAL_clk_WaitForClockOff
0x8ff0bd78 A HAL_clk_WaitForClockOn
0x8ff0bdd0 A HAL_sbi_ConfigEnv
0x8ff0bde8 A HAL_sbi_DisableUpperBanksAccess
0x8ff0be24 A HAL_sbi_EnableHwRequest
0x8ff0bea8 A HAL_sbi_EnableUpperBanksAccess
0x8ff0bee4 A HAL_sbi_GetAddressWidth
0x8ff0bf24 A HAL_sbi_GetClockDivider
0x8ff0bf64 A HAL_sbi_GetCtlrType
0x8ff0bf8c A HAL_sbi_GetHwRequestSlaveAddr
0x8ff0c01c A HAL_sbi_GetSlaveId
0x8ff0c05c A HAL_sbi_GetTransferMode
0x8ff0c09c A HAL_sbi_Init
0x8ff0c138 A HAL_sbi_InitHardware
0x8ff0c174 A HAL_sbi_PmicArbiterCmdGetAddressWidth
0x8ff0c194 A HAL_sbi_PmicArbiterCmdGetTransferMode
0x8ff0c260 A HAL_sbi_PmicArbiterCmdInit
0x8ff0c278 A HAL_sbi_PmicArbiterCmdReadBytes
0x8ff0c2d8 A HAL_sbi_PmicArbiterCmdReadBytesExtAddr
0x8ff0c348 A HAL_sbi_PmicArbiterCmdWriteBytes
0x8ff0c3a8 A HAL_sbi_PmicArbiterCmdWriteBytesExtAddr
0x8ff0c414 A HAL_sbi_ReadBytes
0x8ff0c474 A HAL_sbi_ReadBytesExtAddr
0x8ff0c4d4 A HAL_sbi_SendITMMessage
0x8ff0c510 A HAL_sbi_SetAddressWidth
0x8ff0c54c A HAL_sbi_SetClockDivider
0x8ff0c588 A HAL_sbi_SetConcurrentMasterVMID
0x8ff0c5d4 A HAL_sbi_SetHwRequestSlaveAddr
0x8ff0c65c A HAL_sbi_SetPortPriority
0x8ff0c6e0 A HAL_sbi_SetSamplingDelay
0x8ff0c72c A HAL_sbi_SetSlaveId
0x8ff0c768 A HAL_sbi_SetTransferMode
0x8ff0c7a4 A HAL_sbi_TargetInit
0x8ff0c7b4 A HAL_sbi_TurnOffSlaveClock
0x8ff0c800 A HAL_sbi_WriteBytes
0x8ff0c860 A HAL_sbi_WriteBytesExtAddr
0x8ff0c8c0 A HAL_sdcc_DataControl
0x8ff0c90c A HAL_sdcc_FifoBlockRead
0x8ff0c958 A HAL_sdcc_FifoBlockWrite
0x8ff0c9c4 A HAL_sdcc_GetNumBitsDataLength
0x8ff0c9cc A HAL_sdcc_InitializeRegisters
0x8ff0ca28 A HAL_sdcc_PowerSave
0x8ff0ca4c A HAL_sdcc_SetBusWidth
0x8ff0ca94 A HAL_sdcc_SetSdCmd
0x8ff0cb00 A HAL_sdcc_StatusClearStaticFlags
0x8ff0cb1c A HAL_sdcc_StatusNow
0x8ff0cb30 A HAL_sdcc_Supports8BitBus
0x8ff0cb38 A HAL_tlmm_ConfigGpio
0x8ff0cb74 A HAL_tlmm_GetConfig
0x8ff0cbb0 A HAL_tlmm_GetOutput
0x8ff0cbe8 A HAL_tlmm_Init
0x8ff0cc74 A HAL_tlmm_ReadGpio
0x8ff0ccb0 A HAL_tlmm_SetDirection
0x8ff0ccd8 A HAL_tlmm_WriteConfig
0x8ff0cd00 A HAL_tlmm_WriteGpio
0x8ff0cd44 A HAL_tlmm_WriteGpioGroup
0x8ff0cf04 A HWIO_Close
0x8ff0cf0c A HWIO_DalHWIO_Attach
0x8ff0d004 A HWIO_DeviceDeInit
0x8ff0d00c A HWIO_DeviceInit
0x8ff0d014 A HWIO_DriverDeInit
0x8ff0d040 A HWIO_DriverInit
0x8ff0d0e4 A HWIO_Info
0x8ff0d0ec A HWIO_InitBasePointers
0x8ff0dc80 A HWIO_MapAllRegions
0x8ff0dd98 A HWIO_MapRegion
0x8ff0de58 A HWIO_MapRegionByAddress
0x8ff0df04 A HWIO_Open
0x8ff0df0c A HWIO_PowerEvent
0x8ff0df14 A HWIO_UnMapRegion
0x8ff0e060 A PlatformInfo_DeviceAttach
0x8ff0e110 A PlatformInfo_DriverDeInit
0x8ff0e118 A PlatformInfo_DriverInit
0x8ff0e3ac A SBI_Close
0x8ff0e3bc A SBI_DalSBI_Attach
0x8ff0e568 A SBI_DeviceDeInit
0x8ff0e598 A SBI_DeviceHardwareInit
0x8ff0e8d8 A SBI_DeviceInit
0x8ff0eb34 A SBI_DeviceTargetPostInit
0x8ff0eb3c A SBI_DeviceTargetPowerDown
0x8ff0eb44 A SBI_DeviceTargetPowerUp
0x8ff0eb4c A SBI_DeviceTargetPreInit
0x8ff0eb70 A SBI_DriverDeInit
0x8ff0ebac A SBI_DriverInit
0x8ff0ebb0 A SBI_DriverTargetInit
0x8ff0ebb8 A SBI_EnableHardwareRequest
0x8ff0ec4c A SBI_GetClientSlaveSettings
0x8ff0ede0 A SBI_GetControllerType
0x8ff0ee20 A SBI_GetDeviceConflictList
0x8ff0ee28 A SBI_GetPVCAddressIndex
0x8ff0eeb8 A SBI_Info
0x8ff0eec0 A SBI_Open
0x8ff0eee4 A SBI_PowerEvent
0x8ff0eef8 A SBI_Read
0x8ff0efe0 A SBI_ReadByte
0x8ff0f080 A SBI_ReadWrite
0x8ff0f20c A SBI_SendITMMessage
0x8ff0f26c A SBI_SetClientSlaveSettings
0x8ff0f4d8 A SBI_TurnOffSlave
0x8ff0f54c A SBI_Write
0x8ff0f61c A SBI_WriteByte
0x8ff0f6a8 A SBI_WriteVerifyByte
0x8ff0f7a0 A SBIi_ActivateClient
0x8ff0f7ec A SBIi_IsDevicePowered
0x8ff0f974 A SBIi_Reserve
0x8ff0fa70 A SBIi_SyncEnter
0x8ff0faec A SBIi_SyncLeave
0x8ff0fb24 A System_DalSystem_Attach
0x8ff0fb34 A TLMM_AttachRemote
0x8ff0fb3c A TLMM_BypassSleep
0x8ff0fb44 A TLMM_Close
0x8ff0fb4c A TLMM_ConfigGpio
0x8ff0fb64 A TLMM_ConfigGpioGroup
0x8ff0fc6c A TLMM_ConfigGpiosForSleep
0x8ff0fc74 A TLMM_DalTlmm_Attach
0x8ff0fe64 A TLMM_DeviceDeInit
0x8ff0fed0 A TLMM_DeviceInit
0x8ff101f8 A TLMM_DriverDeInit
0x8ff10200 A TLMM_DriverInit
0x8ff10208 A TLMM_GetCurrentConfig
0x8ff10250 A TLMM_GetGpioNumber
0x8ff10260 A TLMM_GetGpioOwner
0x8ff10280 A TLMM_GetInactiveConfig
0x8ff102f4 A TLMM_GetOutput
0x8ff10330 A TLMM_GetPinStatus
0x8ff10368 A TLMM_GpioIn
0x8ff103b4 A TLMM_GpioOut
0x8ff103cc A TLMM_GpioOutGroup
0x8ff10418 A TLMM_Info
0x8ff10420 A TLMM_IsGpioLocked
0x8ff10428 A TLMM_LockGpio
0x8ff10430 A TLMM_Open
0x8ff10438 A TLMM_PostInit
0x8ff104c0 A TLMM_PowerEvent
0x8ff104c8 A TLMM_ReleaseGpio
0x8ff104d0 A TLMM_RequestGpio
0x8ff104d8 A TLMM_RestoreGpiosFromSleep
0x8ff104e0 A TLMM_SetInactiveConfig
0x8ff10538 A TLMM_SetPort
0x8ff10564 A TLMM_SwitchGpioIntOwnership
0x8ff1056c A TLMM_TristateGpio
0x8ff105bc A TLMM_TristateGpioGroup
0x8ff10614 A TLMM_UnlockGpio
0x8ff1065c A ULogCore_HeaderSet
0x8ff10664 A ULogFront_RealTimeInit
0x8ff10674 A ULogFront_RealTimePrintf
0x8ff1067c A XoAdcGetBsp
0x8ff10688 A XoAdcInitVreg
0x8ff106dc A XoAdcScaleXoTherm
0x8ff10734 A XoAdc_Calibrate
0x8ff107f0 A XoAdc_Close
0x8ff10810 A XoAdc_DalAdcDevice_Attach
0x8ff10910 A XoAdc_DeviceDeInit
0x8ff10960 A XoAdc_DeviceInit
0x8ff10c80 A XoAdc_DriverDeInit
0x8ff10c88 A XoAdc_DriverInit
0x8ff10c90 A XoAdc_GetChannelStatus
0x8ff10cbc A XoAdc_GetDeviceProperties
0x8ff10ce4 A XoAdc_Info
0x8ff10cec A XoAdc_Open
0x8ff10d0c A XoAdc_PowerEvent
0x8ff11164 A XoAdc_RecalibrateChannel
0x8ff112e0 A XoAdc_ScaleResult3
0x8ff1133c A XoAdc_StartConversion
0x8ff11660 A _DALSYS_GetDALPropertyHandle
0x8ff116d4 A _DALSYS_GetPropertyValue
0x8ff11b73 T _Z27pm_sbl3_driver_set_registerPN11PmicObjects4COMM5ICommE26pm_sbl3_mode_register_typetthhhh22pm_sbl3_operation_type
0x8ff11c5d T _ZN11PmicObjects10interrupts10IInterruptC2EPNS_11PmicDevices10PmicDeviceE
0x8ff11c71 T _ZN11PmicObjects10interrupts5PMIC416Interrupts_PMIC411GetRTStatusEtPh
0x8ff11cfd T _ZN11PmicObjects10interrupts5PMIC416Interrupts_PMIC412SetIrqHandleEtPFvPvES3_
0x8ff11d45 T _ZN11PmicObjects10interrupts5PMIC416Interrupts_PMIC413InterruptInitEi
0x8ff11e0b T _ZN11PmicObjects10interrupts5PMIC416Interrupts_PMIC421PM_IRQ_ID_TO_BIT_MASKEt
0x8ff11e17 T _ZN11PmicObjects10interrupts5PMIC416Interrupts_PMIC422PM_IRQ_ID_TO_BIT_INDEXEt
0x8ff11e1d T _ZN11PmicObjects10interrupts5PMIC416Interrupts_PMIC424PM_IRQ_ID_TO_BLOCK_INDEXEt
0x8ff11e23 T _ZN11PmicObjects10interrupts5PMIC416Interrupts_PMIC48ClearIRQEt
0x8ff11ea9 T _ZN11PmicObjects10interrupts5PMIC416Interrupts_PMIC49ConfigIRQEit19pm_irq_trigger_typeh
0x8ff11fb9 T _ZN11PmicObjects10interrupts5PMIC416Interrupts_PMIC49GetDomainEv
0x8ff11fcd T _ZN11PmicObjects10interrupts5PMIC416Interrupts_PMIC4C1EPNS_11PmicDevices10PmicDeviceE
0x8ff11fcd T _ZN11PmicObjects10interrupts5PMIC416Interrupts_PMIC4C2EPNS_11PmicDevices10PmicDeviceE
0x8ff12061 T _ZN11PmicObjects10interrupts5PMIC419Interrupts_V2_PMIC411GetRTStatusEtPh
0x8ff120c3 T _ZN11PmicObjects10interrupts5PMIC419Interrupts_V2_PMIC412SetIrqHandleEtPFvPvES3_
0x8ff120f1 T _ZN11PmicObjects10interrupts5PMIC419Interrupts_V2_PMIC413InterruptInitEv
0x8ff1218d T _ZN11PmicObjects10interrupts5PMIC419Interrupts_V2_PMIC422PM_IRQ_ID_TO_BIT_INDEXEt
0x8ff12193 T _ZN11PmicObjects10interrupts5PMIC419Interrupts_V2_PMIC424PM_IRQ_ID_TO_BLOCK_INDEXEt
0x8ff12199 T _ZN11PmicObjects10interrupts5PMIC419Interrupts_V2_PMIC48ClearIRQEt
0x8ff121db T _ZN11PmicObjects10interrupts5PMIC419Interrupts_V2_PMIC49ConfigIRQEit19pm_irq_trigger_typeh
0x8ff121df T _ZN11PmicObjects10interrupts5PMIC419Interrupts_V2_PMIC49GetDomainEv
0x8ff121e5 T _ZN11PmicObjects10interrupts5PMIC419Interrupts_V2_PMIC4C1EPNS_11PmicDevices10PmicDeviceE
0x8ff121e5 T _ZN11PmicObjects10interrupts5PMIC419Interrupts_V2_PMIC4C2EPNS_11PmicDevices10PmicDeviceE
0x8ff121fd T _ZN11PmicObjects10interrupts5PMIC423Interrupts_PMIC4_ConfigC1EPNS_11PmicDevices10PmicDeviceE
0x8ff121fd T _ZN11PmicObjects10interrupts5PMIC423Interrupts_PMIC4_ConfigC2EPNS_11PmicDevices10PmicDeviceE
0x8ff12281 T _ZN11PmicObjects10interrupts5PMIC426Interrupts_V2_PMIC4_ConfigC1EPNS_11PmicDevices10PmicDeviceE
0x8ff12281 T _ZN11PmicObjects10interrupts5PMIC426Interrupts_V2_PMIC4_ConfigC2EPNS_11PmicDevices10PmicDeviceE
0x8ff122fd T _ZN11PmicObjects11PmicDevices10DeviceInfoC1Ev
0x8ff122fd T _ZN11PmicObjects11PmicDevices10DeviceInfoC2Ev
0x8ff12311 T _ZN11PmicObjects11PmicDevices10PmicDevice14GetDeviceIndexEv
0x8ff12315 T _ZN11PmicObjects11PmicDevices10PmicDevice15GetPmicResourceENS0_10ModuleTypeEhPNS0_12PmicResourceE
0x8ff1231d T _ZN11PmicObjects11PmicDevices10PmicDeviceC2ENS0_11DeviceIndexE
0x8ff12339 T _ZN11PmicObjects11PmicDevices12PmicResource13GetModuleTypeEv
0x8ff1233d T _ZN11PmicObjects11PmicDevices12PmicResourceC1ENS0_10ModuleTypeEPNS0_10PmicDeviceE
0x8ff1233d T _ZN11PmicObjects11PmicDevices12PmicResourceC2ENS0_10ModuleTypeEPNS0_10PmicDeviceE
0x8ff12379 T _ZN11PmicObjects11PmicDevices15PmicSubResourceC1ENS0_10ModuleTypeEPNS0_10PmicDeviceEPNS0_12PmicResourceE
0x8ff12379 T _ZN11PmicObjects11PmicDevices15PmicSubResourceC2ENS0_10ModuleTypeEPNS0_10PmicDeviceEPNS0_12PmicResourceE
0x8ff1238d T _ZN11PmicObjects11PmicDevices18AppsProcBootPM882115GetPmicResourceENS0_10ModuleTypeE
0x8ff12421 T _ZN11PmicObjects11PmicDevices18AppsProcBootPM882115GetPmicResourceENS0_10ModuleTypeEhPNS0_12PmicResourceE
0x8ff12477 T _ZN11PmicObjects11PmicDevices18AppsProcBootPM882126GetPwrAlgCompositeResourceEhPNS0_12PmicResourceE
0x8ff1252f T _ZN11PmicObjects11PmicDevices18AppsProcBootPM882129GetVregV2AlgCompositeResourceEhPNS0_12PmicResourceE
0x8ff125b9 T _ZN11PmicObjects11PmicDevices18AppsProcBootPM882130GetPwrBuckAlgCompositeResourceEhPNS0_12PmicResourceE
0x8ff12631 T _ZN11PmicObjects11PmicDevices18AppsProcBootPM882132GetPwrLinearAlgCompositeResourceEhPNS0_12PmicResourceE
0x8ff1265b T _ZN11PmicObjects11PmicDevices18AppsProcBootPM882133GetVregV2BuckAlgCompositeResourceEhPNS0_12PmicResourceE
0x8ff12685 T _ZN11PmicObjects11PmicDevices18AppsProcBootPM882135GetVregV2LinearAlgCompositeResourceEhPNS0_12PmicResourceE
0x8ff126d5 T _ZN11PmicObjects11PmicDevices18AppsProcBootPM8821C1ENS0_11DeviceIndexE
0x8ff126d5 T _ZN11PmicObjects11PmicDevices18AppsProcBootPM8821C2ENS0_11DeviceIndexE
0x8ff12749 T _ZN11PmicObjects11PmicDevices18AppsProcBootPM892115GetPmicResourceENS0_10ModuleTypeE
0x8ff12949 T _ZN11PmicObjects11PmicDevices18AppsProcBootPM892115GetPmicResourceENS0_10ModuleTypeEhPNS0_12PmicResourceE
0x8ff129a5 T _ZN11PmicObjects11PmicDevices18AppsProcBootPM892126GetPwrAlgCompositeResourceEhPNS0_12PmicResourceE
0x8ff12ad9 T _ZN11PmicObjects11PmicDevices18AppsProcBootPM892129GetVregV2AlgCompositeResourceEhPNS0_12PmicResourceE
0x8ff12bc3 T _ZN11PmicObjects11PmicDevices18AppsProcBootPM892130GetPwrBuckAlgCompositeResourceEhPNS0_12PmicResourceE
0x8ff12c8b T _ZN11PmicObjects11PmicDevices18AppsProcBootPM892132GetPwrLinearAlgCompositeResourceEhPNS0_12PmicResourceE
0x8ff12cb5 T _ZN11PmicObjects11PmicDevices18AppsProcBootPM892132GetVregV2HfsAlgCompositeResourceEhPNS0_12PmicResourceE
0x8ff12cf1 T _ZN11PmicObjects11PmicDevices18AppsProcBootPM892133GetVregV2BuckAlgCompositeResourceEhPNS0_12PmicResourceE
0x8ff12d2d T _ZN11PmicObjects11PmicDevices18AppsProcBootPM892135GetVregV2LinearAlgCompositeResourceEhPNS0_12PmicResourceE
0x8ff12db1 T _ZN11PmicObjects11PmicDevices18AppsProcBootPM8921C1ENS0_11DeviceIndexE
0x8ff12db1 T _ZN11PmicObjects11PmicDevices18AppsProcBootPM8921C2ENS0_11DeviceIndexE
0x8ff12e35 T _ZN11PmicObjects11PmicDevices18PmicMappedResource15GetPmicResourceEv
0x8ff12e39 T _ZN11PmicObjects11PmicDevices18PmicMappedResource18GetMasterProcessorEv
0x8ff12e47 T _ZN11PmicObjects11PmicDevices18PmicMappedResource24GetInternalResourceIndexEv
0x8ff12e4d T _ZN11PmicObjects11PmicDevices18PmicMappedResourceC1EPNS0_12PmicResourceENS0_21InternalResourceIndexENS_13ProcessorTypeEb
0x8ff12e4d T _ZN11PmicObjects11PmicDevices18PmicMappedResourceC2EPNS0_12PmicResourceENS0_21InternalResourceIndexENS_13ProcessorTypeEb
0x8ff12e55 T _ZN11PmicObjects11PmicDevices20PmicVersionDetection11ReadChipRevEPNS_4COMM8CommInfoE
0x8ff12f0d T _ZN11PmicObjects11PmicDevices6PM8821C2ENS0_11DeviceIndexE
0x8ff12f1d T _ZN11PmicObjects11PmicDevices6PM892115GetPmicResourceENS0_10ModuleTypeE
0x8ff12f25 T _ZN11PmicObjects11PmicDevices6PM892115GetPmicResourceENS0_10ModuleTypeEhPNS0_12PmicResourceE
0x8ff12f2d T _ZN11PmicObjects11PmicDevices6PM8921C1ENS0_11DeviceIndexE
0x8ff12f2d T _ZN11PmicObjects11PmicDevices6PM8921C2ENS0_11DeviceIndexE
0x8ff12f3d T _ZN11PmicObjects15TargetProcessor12GetSingletonEv
0x8ff12f49 T _ZN11PmicObjects15TargetProcessor15DeleteSingletonEv
0x8ff12f65 T _ZN11PmicObjects15TargetProcessor16GetProcessorTypeEv
0x8ff12f69 T _ZN11PmicObjects15TargetProcessor18GetResourceManagerEv
0x8ff12f6d T _ZN11PmicObjects15TargetProcessorC2Ev
0x8ff12f8d T _ZN11PmicObjects15TargetProcessorD0Ev
0x8ff12f9b T _ZN11PmicObjects15TargetProcessorD1Ev
0x8ff12f9b T _ZN11PmicObjects15TargetProcessorD2Ev
0x8ff12f9d T _ZN11PmicObjects19BaseResourceManager13GetPmicDeviceEh
0x8ff12fb3 T _ZN11PmicObjects19BaseResourceManager25GetInternalMappedResourceEi
0x8ff12fbd T _ZN11PmicObjects19BaseResourceManagerC2Eh
0x8ff12fed T _ZN11PmicObjects19BaseResourceManagerD0Ev
0x8ff12ffd T _ZN11PmicObjects19BaseResourceManagerD1Ev
0x8ff12ffd T _ZN11PmicObjects19BaseResourceManagerD2Ev
0x8ff13015 T _ZN11PmicObjects2VS5PMIC411VS_V2_PMIC4C1EPNS_11PmicDevices10PmicDeviceE
0x8ff13015 T _ZN11PmicObjects2VS5PMIC411VS_V2_PMIC4C2EPNS_11PmicDevices10PmicDeviceE
0x8ff1302d T _ZN11PmicObjects2VS5PMIC418VS_V2_PMIC4_ConfigC1EPNS_11PmicDevices10PmicDeviceE
0x8ff1302d T _ZN11PmicObjects2VS5PMIC418VS_V2_PMIC4_ConfigC2EPNS_11PmicDevices10PmicDeviceE
0x8ff13119 T _ZN11PmicObjects2VS6VsBaseC1EPNS_11PmicDevices10PmicDeviceE
0x8ff13119 T _ZN11PmicObjects2VS6VsBaseC2EPNS_11PmicDevices10PmicDeviceE
0x8ff1313d T _ZN11PmicObjects3CLK4ICLKC2EPNS_11PmicDevices10PmicDeviceE
0x8ff13151 T _ZN11PmicObjects3CLK5PMIC414MEGA_CLK_PMIC4C1EPNS_11PmicDevices10PmicDeviceE
0x8ff13151 T _ZN11PmicObjects3CLK5PMIC414MEGA_CLK_PMIC4C2EPNS_11PmicDevices10PmicDeviceE
0x8ff131a5 T _ZN11PmicObjects3CLK5PMIC416CLK_PMIC4_ConfigC1EPNS_11PmicDevices10PmicDeviceE
0x8ff131a5 T _ZN11PmicObjects3CLK5PMIC416CLK_PMIC4_ConfigC2EPNS_11PmicDevices10PmicDeviceE
0x8ff131f5 T _ZN11PmicObjects3CLK5PMIC421MEGA_CLK_PMIC4_ConfigC1EPNS_11PmicDevices10PmicDeviceE
0x8ff131f5 T _ZN11PmicObjects3CLK5PMIC421MEGA_CLK_PMIC4_ConfigC2EPNS_11PmicDevices10PmicDeviceE
0x8ff13245 T _ZN11PmicObjects3CLK5PMIC49CLK_PMIC4C1EPNS_11PmicDevices10PmicDeviceE
0x8ff13245 T _ZN11PmicObjects3CLK5PMIC49CLK_PMIC4C2EPNS_11PmicDevices10PmicDeviceE
0x8ff1325d T _ZN11PmicObjects3LDO10LinearBaseC1ENS_11PmicDevices10ModuleTypeEPNS2_10PmicDeviceE
0x8ff1325d T _ZN11PmicObjects3LDO10LinearBaseC2ENS_11PmicDevices10ModuleTypeEPNS2_10PmicDeviceE
0x8ff13285 T _ZN11PmicObjects3LDO16IPwrLinearBypassC2EPNS_11PmicDevices10PmicDeviceEPNS2_12PmicResourceE
0x8ff1329d T _ZN11PmicObjects3LDO17IVregV2LpModeCtrlC2EPNS_11PmicDevices10PmicDeviceEPNS2_12PmicResourceE
0x8ff132b5 T _ZN11PmicObjects3LDO20PwrLinearBypassAlgV1C1EPNS_11PmicDevices10PmicDeviceEPNS2_12PmicResourceE
0x8ff132b5 T _ZN11PmicObjects3LDO20PwrLinearBypassAlgV1C2EPNS_11PmicDevices10PmicDeviceEPNS2_12PmicResourceE
0x8ff13329 T _ZN11PmicObjects3LDO21IVregV2LpForceLpmCtrlC2EPNS_11PmicDevices10PmicDeviceEPNS2_12PmicResourceE
0x8ff13341 T _ZN11PmicObjects3LDO21VregV2LpModeCtrlAlgV1C1EPNS_11PmicDevices10PmicDeviceEPNS2_12PmicResourceE
0x8ff13341 T _ZN11PmicObjects3LDO21VregV2LpModeCtrlAlgV1C2EPNS_11PmicDevices10PmicDeviceEPNS2_12PmicResourceE
0x8ff133b5 T _ZN11PmicObjects3LDO21VregV2LpModeCtrlAlgV2C1EPNS_11PmicDevices10PmicDeviceEPNS2_12PmicResourceE
0x8ff133b5 T _ZN11PmicObjects3LDO21VregV2LpModeCtrlAlgV2C2EPNS_11PmicDevices10PmicDeviceEPNS2_12PmicResourceE
0x8ff133c5 T _ZN11PmicObjects3LDO23IVregV2LpModeAndPinCtrlC2EPNS_11PmicDevices10PmicDeviceEPNS2_12PmicResourceE
0x8ff133dd T _ZN11PmicObjects3LDO25VregV2LpForceLpmCtrlAlgV1C1EPNS_11PmicDevices10PmicDeviceEPNS2_12PmicResourceE
0x8ff133dd T _ZN11PmicObjects3LDO25VregV2LpForceLpmCtrlAlgV1C2EPNS_11PmicDevices10PmicDeviceEPNS2_12PmicResourceE
0x8ff13451 T _ZN11PmicObjects3LDO25VregV2LpForceLpmCtrlAlgV2C1EPNS_11PmicDevices10PmicDeviceEPNS2_12PmicResourceE
0x8ff13451 T _ZN11PmicObjects3LDO25VregV2LpForceLpmCtrlAlgV2C2EPNS_11PmicDevices10PmicDeviceEPNS2_12PmicResourceE
0x8ff13461 T _ZN11PmicObjects3LDO27VregV2LpModeAndPinCtrlAlgV1C1EPNS_11PmicDevices10PmicDeviceEPNS2_12PmicResourceE
0x8ff13461 T _ZN11PmicObjects3LDO27VregV2LpModeAndPinCtrlAlgV1C2EPNS_11PmicDevices10PmicDeviceEPNS2_12PmicResourceE
0x8ff134d5 T _ZN11PmicObjects3LDO27VregV2LpModeAndPinCtrlAlgV2C1EPNS_11PmicDevices10PmicDeviceEPNS2_12PmicResourceE
0x8ff134d5 T _ZN11PmicObjects3LDO27VregV2LpModeAndPinCtrlAlgV2C2EPNS_11PmicDevices10PmicDeviceEPNS2_12PmicResourceE
0x8ff134e5 T _ZN11PmicObjects3LDO5PMIC411LNLDO_PMIC4C1EPNS_11PmicDevices10PmicDeviceE
0x8ff134e5 T _ZN11PmicObjects3LDO5PMIC411LNLDO_PMIC4C2EPNS_11PmicDevices10PmicDeviceE
0x8ff134fd T _ZN11PmicObjects3LDO5PMIC412LDO_V2_PMIC4C1EPNS_11PmicDevices10PmicDeviceE
0x8ff134fd T _ZN11PmicObjects3LDO5PMIC412LDO_V2_PMIC4C2EPNS_11PmicDevices10PmicDeviceE
0x8ff13515 T _ZN11PmicObjects3LDO5PMIC418LNLDO_PMIC4_ConfigC1EPNS_11PmicDevices10PmicDeviceE
0x8ff13515 T _ZN11PmicObjects3LDO5PMIC418LNLDO_PMIC4_ConfigC2EPNS_11PmicDevices10PmicDeviceE
0x8ff13669 T _ZN11PmicObjects3LDO5PMIC419LDO_V2_PMIC4_ConfigC1EPNS_11PmicDevices10PmicDeviceE
0x8ff13669 T _ZN11PmicObjects3LDO5PMIC419LDO_V2_PMIC4_ConfigC2EPNS_11PmicDevices10PmicDeviceE
0x8ff1379d T _ZN11PmicObjects3LDO7LdoBaseC1EPNS_11PmicDevices10PmicDeviceE
0x8ff1379d T _ZN11PmicObjects3LDO7LdoBaseC2EPNS_11PmicDevices10PmicDeviceE
0x8ff137b1 T _ZN11PmicObjects3LDO9LnldoBaseC1EPNS_11PmicDevices10PmicDeviceE
0x8ff137b1 T _ZN11PmicObjects3LDO9LnldoBaseC2EPNS_11PmicDevices10PmicDeviceE
0x8ff137c5 T _ZN11PmicObjects3LPG4ILPGC2EPNS_11PmicDevices10PmicDeviceE
0x8ff137d9 T _ZN11PmicObjects3LPG5PMIC416LPG_PMIC4_ConfigC1EPNS_11PmicDevices10PmicDeviceE
0x8ff137d9 T _ZN11PmicObjects3LPG5PMIC416LPG_PMIC4_ConfigC2EPNS_11PmicDevices10PmicDeviceE
0x8ff13845 T _ZN11PmicObjects3LPG5PMIC49LPG_PMIC4C1EPNS_11PmicDevices10PmicDeviceE
0x8ff13845 T _ZN11PmicObjects3LPG5PMIC49LPG_PMIC4C2EPNS_11PmicDevices10PmicDeviceE
0x8ff138f5 T _ZN11PmicObjects3MBG4IMBGC2EPNS_11PmicDevices10PmicDeviceE
0x8ff13909 T _ZN11PmicObjects3MBG5PMIC416MBG_PMIC4_ConfigC1EPNS_11PmicDevices10PmicDeviceE
0x8ff13909 T _ZN11PmicObjects3MBG5PMIC416MBG_PMIC4_ConfigC2EPNS_11PmicDevices10PmicDeviceE
0x8ff13959 T _ZN11PmicObjects3MBG5PMIC49MBG_PMIC4C1EPNS_11PmicDevices10PmicDeviceE
0x8ff13959 T _ZN11PmicObjects3MBG5PMIC49MBG_PMIC4C2EPNS_11PmicDevices10PmicDeviceE
0x8ff139b5 T _ZN11PmicObjects3MPP4IMPPC2EPNS_11PmicDevices10PmicDeviceE
0x8ff139c9 T _ZN11PmicObjects3MPP5PMIC416MPP_PMIC4_ConfigC1EPNS_11PmicDevices10PmicDeviceE
0x8ff139c9 T _ZN11PmicObjects3MPP5PMIC416MPP_PMIC4_ConfigC2EPNS_11PmicDevices10PmicDeviceE
0x8ff13a79 T _ZN11PmicObjects3MPP5PMIC49MPP_PMIC411ConfigISinkE24pm_mpp_i_sink_level_type25pm_mpp_i_sink_switch_typei
0x8ff13ac7 T _ZN11PmicObjects3MPP5PMIC49MPP_PMIC415MppAbusPulldownEhNS1_22pm_drv_mpp_config_typeEi
0x8ff13b73 T _ZN11PmicObjects3MPP5PMIC49MPP_PMIC417ConfigAnalogInputE18pm_mpp_ain_ch_typei
0x8ff13bbd T _ZN11PmicObjects3MPP5PMIC49MPP_PMIC4C1EPNS_11PmicDevices10PmicDeviceE
0x8ff13bbd T _ZN11PmicObjects3MPP5PMIC49MPP_PMIC4C2EPNS_11PmicDevices10PmicDeviceE
0x8ff13bf1 T _ZN11PmicObjects3NCP4INCPC2EPNS_11PmicDevices10PmicDeviceE
0x8ff13c05 T _ZN11PmicObjects3NCP5PMIC416NCP_PMIC4_ConfigC1EPNS_11PmicDevices10PmicDeviceE
0x8ff13c05 T _ZN11PmicObjects3NCP5PMIC416NCP_PMIC4_ConfigC2EPNS_11PmicDevices10PmicDeviceE
0x8ff13c55 T _ZN11PmicObjects3NCP5PMIC49NCP_PMIC4C1EPNS_11PmicDevices10PmicDeviceE
0x8ff13c55 T _ZN11PmicObjects3NCP5PMIC49NCP_PMIC4C2EPNS_11PmicDevices10PmicDeviceE
0x8ff13c85 T _ZN11PmicObjects3OVP4IOVPC2EPNS_11PmicDevices10PmicDeviceE
0x8ff13c99 T _ZN11PmicObjects3OVP5PMIC416OVP_PMIC4_ConfigC1EPNS_11PmicDevices10PmicDeviceE
0x8ff13c99 T _ZN11PmicObjects3OVP5PMIC416OVP_PMIC4_ConfigC2EPNS_11PmicDevices10PmicDeviceE
0x8ff13d05 T _ZN11PmicObjects3OVP5PMIC49OVP_PMIC4C2EPNS_11PmicDevices10PmicDeviceE
0x8ff13d39 T _ZN11PmicObjects3PWR11IVregV2CtrlC2EPNS_11PmicDevices10PmicDeviceEPNS2_12PmicResourceE
0x8ff13d51 T _ZN11PmicObjects3PWR12IVregV2LevelC2EPNS_11PmicDevices10PmicDeviceEPNS2_12PmicResourceE
0x8ff13d69 T _ZN11PmicObjects3PWR12PwrModeAlgV1C1EPNS_11PmicDevices10PmicDeviceEPNS2_12PmicResourceE
0x8ff13d69 T _ZN11PmicObjects3PWR12PwrModeAlgV1C2EPNS_11PmicDevices10PmicDeviceEPNS2_12PmicResourceE
0x8ff13ddd T _ZN11PmicObjects3PWR12PwrModeAlgV2C1EPNS_11PmicDevices10PmicDeviceEPNS2_12PmicResourceE
0x8ff13ddd T _ZN11PmicObjects3PWR12PwrModeAlgV2C2EPNS_11PmicDevices10PmicDeviceEPNS2_12PmicResourceE
0x8ff13e51 T _ZN11PmicObjects3PWR12PwrModeAlgV3C1EPNS_11PmicDevices10PmicDeviceEPNS2_12PmicResourceE
0x8ff13e51 T _ZN11PmicObjects3PWR12PwrModeAlgV3C2EPNS_11PmicDevices10PmicDeviceEPNS2_12PmicResourceE
0x8ff13ec5 T _ZN11PmicObjects3PWR12PwrModeAlgV4C1EPNS_11PmicDevices10PmicDeviceEPNS2_12PmicResourceE
0x8ff13ec5 T _ZN11PmicObjects3PWR12PwrModeAlgV4C2EPNS_11PmicDevices10PmicDeviceEPNS2_12PmicResourceE
0x8ff13f39 T _ZN11PmicObjects3PWR12PwrModeAlgV5C1EPNS_11PmicDevices10PmicDeviceEPNS2_12PmicResourceE
0x8ff13f39 T _ZN11PmicObjects3PWR12PwrModeAlgV5C2EPNS_11PmicDevices10PmicDeviceEPNS2_12PmicResourceE
0x8ff13f49 T _ZN11PmicObjects3PWR13IPwrPinCtrledC2EPNS_11PmicDevices10PmicDeviceEPNS2_12PmicResourceE
0x8ff13f61 T _ZN11PmicObjects3PWR13IPwrVoltLevelC2EPNS_11PmicDevices10PmicDeviceEPNS2_12PmicResourceE
0x8ff13f79 T _ZN11PmicObjects3PWR14IVregV2PinCtrlC2EPNS_11PmicDevices10PmicDeviceEPNS2_12PmicResourceE
0x8ff13f91 T _ZN11PmicObjects3PWR15VregV2CtrlAlgV1C1EPNS_11PmicDevices10PmicDeviceEPNS2_12PmicResourceE
0x8ff13f91 T _ZN11PmicObjects3PWR15VregV2CtrlAlgV1C2EPNS_11PmicDevices10PmicDeviceEPNS2_12PmicResourceE
0x8ff14005 T _ZN11PmicObjects3PWR15VregV2CtrlAlgV2C1EPNS_11PmicDevices10PmicDeviceEPNS2_12PmicResourceE
0x8ff14005 T _ZN11PmicObjects3PWR15VregV2CtrlAlgV2C2EPNS_11PmicDevices10PmicDeviceEPNS2_12PmicResourceE
0x8ff14079 T _ZN11PmicObjects3PWR15VregV2CtrlAlgV3C1EPNS_11PmicDevices10PmicDeviceEPNS2_12PmicResourceE
0x8ff14079 T _ZN11PmicObjects3PWR15VregV2CtrlAlgV3C2EPNS_11PmicDevices10PmicDeviceEPNS2_12PmicResourceE
0x8ff140ed T _ZN11PmicObjects3PWR15VregV2CtrlAlgV4C1EPNS_11PmicDevices10PmicDeviceEPNS2_12PmicResourceE
0x8ff140ed T _ZN11PmicObjects3PWR15VregV2CtrlAlgV4C2EPNS_11PmicDevices10PmicDeviceEPNS2_12PmicResourceE
0x8ff14161 T _ZN11PmicObjects3PWR16VregV2LevelAlgV1C1EPNS_11PmicDevices10PmicDeviceEPNS2_12PmicResourceE
0x8ff14161 T _ZN11PmicObjects3PWR16VregV2LevelAlgV1C2EPNS_11PmicDevices10PmicDeviceEPNS2_12PmicResourceE
0x8ff141d5 T _ZN11PmicObjects3PWR16VregV2LevelAlgV2C1EPNS_11PmicDevices10PmicDeviceEPNS2_12PmicResourceE
0x8ff141d5 T _ZN11PmicObjects3PWR16VregV2LevelAlgV2C2EPNS_11PmicDevices10PmicDeviceEPNS2_12PmicResourceE
0x8ff14249 T _ZN11PmicObjects3PWR16VregV2LevelAlgV3C1EPNS_11PmicDevices10PmicDeviceEPNS2_12PmicResourceE
0x8ff14249 T _ZN11PmicObjects3PWR16VregV2LevelAlgV3C2EPNS_11PmicDevices10PmicDeviceEPNS2_12PmicResourceE
0x8ff142bd T _ZN11PmicObjects3PWR16VregV2LevelAlgV4C1EPNS_11PmicDevices10PmicDeviceEPNS2_12PmicResourceE
0x8ff142bd T _ZN11PmicObjects3PWR16VregV2LevelAlgV4C2EPNS_11PmicDevices10PmicDeviceEPNS2_12PmicResourceE
0x8ff14331 T _ZN11PmicObjects3PWR17PwrPinCtrledAlgV1C1EPNS_11PmicDevices10PmicDeviceEPNS2_12PmicResourceE
0x8ff14331 T _ZN11PmicObjects3PWR17PwrPinCtrledAlgV1C2EPNS_11PmicDevices10PmicDeviceEPNS2_12PmicResourceE
0x8ff143a5 T _ZN11PmicObjects3PWR17PwrPinCtrledAlgV2C1EPNS_11PmicDevices10PmicDeviceEPNS2_12PmicResourceE
0x8ff143a5 T _ZN11PmicObjects3PWR17PwrPinCtrledAlgV2C2EPNS_11PmicDevices10PmicDeviceEPNS2_12PmicResourceE
0x8ff14419 T _ZN11PmicObjects3PWR17PwrPinCtrledAlgV3C1EPNS_11PmicDevices10PmicDeviceEPNS2_12PmicResourceE
0x8ff14419 T _ZN11PmicObjects3PWR17PwrPinCtrledAlgV3C2EPNS_11PmicDevices10PmicDeviceEPNS2_12PmicResourceE
0x8ff1448d T _ZN11PmicObjects3PWR17PwrPinCtrledAlgV4C1EPNS_11PmicDevices10PmicDeviceEPNS2_12PmicResourceE
0x8ff1448d T _ZN11PmicObjects3PWR17PwrPinCtrledAlgV4C2EPNS_11PmicDevices10PmicDeviceEPNS2_12PmicResourceE
0x8ff14501 T _ZN11PmicObjects3PWR17PwrPinCtrledAlgV5C1EPNS_11PmicDevices10PmicDeviceEPNS2_12PmicResourceE
0x8ff14501 T _ZN11PmicObjects3PWR17PwrPinCtrledAlgV5C2EPNS_11PmicDevices10PmicDeviceEPNS2_12PmicResourceE
0x8ff14511 T _ZN11PmicObjects3PWR17PwrVoltLevelAlgV1C1EPNS_11PmicDevices10PmicDeviceEPNS2_12PmicResourceE
0x8ff14511 T _ZN11PmicObjects3PWR17PwrVoltLevelAlgV1C2EPNS_11PmicDevices10PmicDeviceEPNS2_12PmicResourceE
0x8ff14585 T _ZN11PmicObjects3PWR17PwrVoltLevelAlgV2C1EPNS_11PmicDevices10PmicDeviceEPNS2_12PmicResourceE
0x8ff14585 T _ZN11PmicObjects3PWR17PwrVoltLevelAlgV2C2EPNS_11PmicDevices10PmicDeviceEPNS2_12PmicResourceE
0x8ff145f9 T _ZN11PmicObjects3PWR17PwrVoltLevelAlgV3C1EPNS_11PmicDevices10PmicDeviceEPNS2_12PmicResourceE
0x8ff145f9 T _ZN11PmicObjects3PWR17PwrVoltLevelAlgV3C2EPNS_11PmicDevices10PmicDeviceEPNS2_12PmicResourceE
0x8ff1466d T _ZN11PmicObjects3PWR17PwrVoltLevelAlgV4C1EPNS_11PmicDevices10PmicDeviceEPNS2_12PmicResourceE
0x8ff1466d T _ZN11PmicObjects3PWR17PwrVoltLevelAlgV4C2EPNS_11PmicDevices10PmicDeviceEPNS2_12PmicResourceE
0x8ff146e1 T _ZN11PmicObjects3PWR18IPwrActivePullDownC2EPNS_11PmicDevices10PmicDeviceEPNS2_12PmicResourceE
0x8ff146f9 T _ZN11PmicObjects3PWR18VregV2PinCtrlAlgV1C1EPNS_11PmicDevices10PmicDeviceEPNS2_12PmicResourceE
0x8ff146f9 T _ZN11PmicObjects3PWR18VregV2PinCtrlAlgV1C2EPNS_11PmicDevices10PmicDeviceEPNS2_12PmicResourceE
0x8ff1476d T _ZN11PmicObjects3PWR18VregV2PinCtrlAlgV2C1EPNS_11PmicDevices10PmicDeviceEPNS2_12PmicResourceE
0x8ff1476d T _ZN11PmicObjects3PWR18VregV2PinCtrlAlgV2C2EPNS_11PmicDevices10PmicDeviceEPNS2_12PmicResourceE
0x8ff147e1 T _ZN11PmicObjects3PWR18VregV2PinCtrlAlgV3C1EPNS_11PmicDevices10PmicDeviceEPNS2_12PmicResourceE
0x8ff147e1 T _ZN11PmicObjects3PWR18VregV2PinCtrlAlgV3C2EPNS_11PmicDevices10PmicDeviceEPNS2_12PmicResourceE
0x8ff14855 T _ZN11PmicObjects3PWR18VregV2PinCtrlAlgV4C1EPNS_11PmicDevices10PmicDeviceEPNS2_12PmicResourceE
0x8ff14855 T _ZN11PmicObjects3PWR18VregV2PinCtrlAlgV4C2EPNS_11PmicDevices10PmicDeviceEPNS2_12PmicResourceE
0x8ff148c9 T _ZN11PmicObjects3PWR22PwrActivePullDownAlgV1C1EPNS_11PmicDevices10PmicDeviceEPNS2_12PmicResourceE
0x8ff148c9 T _ZN11PmicObjects3PWR22PwrActivePullDownAlgV1C2EPNS_11PmicDevices10PmicDeviceEPNS2_12PmicResourceE
0x8ff1493d T _ZN11PmicObjects3PWR22PwrActivePullDownAlgV2C1EPNS_11PmicDevices10PmicDeviceEPNS2_12PmicResourceE
0x8ff1493d T _ZN11PmicObjects3PWR22PwrActivePullDownAlgV2C2EPNS_11PmicDevices10PmicDeviceEPNS2_12PmicResourceE
0x8ff149b1 T _ZN11PmicObjects3PWR22PwrActivePullDownAlgV3C1EPNS_11PmicDevices10PmicDeviceEPNS2_12PmicResourceE
0x8ff149b1 T _ZN11PmicObjects3PWR22PwrActivePullDownAlgV3C2EPNS_11PmicDevices10PmicDeviceEPNS2_12PmicResourceE
0x8ff14a25 T _ZN11PmicObjects3PWR22PwrActivePullDownAlgV4C1EPNS_11PmicDevices10PmicDeviceEPNS2_12PmicResourceE
0x8ff14a25 T _ZN11PmicObjects3PWR22PwrActivePullDownAlgV4C2EPNS_11PmicDevices10PmicDeviceEPNS2_12PmicResourceE
0x8ff14a99 T _ZN11PmicObjects3PWR22PwrActivePullDownAlgV5C1EPNS_11PmicDevices10PmicDeviceEPNS2_12PmicResourceE
0x8ff14a99 T _ZN11PmicObjects3PWR22PwrActivePullDownAlgV5C2EPNS_11PmicDevices10PmicDeviceEPNS2_12PmicResourceE
0x8ff14aa9 T _ZN11PmicObjects3PWR8IPwrModeC2EPNS_11PmicDevices10PmicDeviceEPNS2_12PmicResourceE
0x8ff14ac1 T _ZN11PmicObjects3RTC4IRTCC2EPNS_11PmicDevices10PmicDeviceE
0x8ff14ad5 T _ZN11PmicObjects3RTC5PMIC414MEGA_RTC_PMIC4C1EPNS_11PmicDevices10PmicDeviceE
0x8ff14ad5 T _ZN11PmicObjects3RTC5PMIC414MEGA_RTC_PMIC4C2EPNS_11PmicDevices10PmicDeviceE
0x8ff14b0d T _ZN11PmicObjects3RTC5PMIC421MEGA_RTC_PMIC4_ConfigC1EPNS_11PmicDevices10PmicDeviceE
0x8ff14b0d T _ZN11PmicObjects3RTC5PMIC421MEGA_RTC_PMIC4_ConfigC2EPNS_11PmicDevices10PmicDeviceE
0x8ff14b5d T _ZN11PmicObjects3VIB4IVIBC2EPNS_11PmicDevices10PmicDeviceE
0x8ff14b71 T _ZN11PmicObjects3VIB5PMIC416VIB_PMIC4_ConfigC1EPNS_11PmicDevices10PmicDeviceE
0x8ff14b71 T _ZN11PmicObjects3VIB5PMIC416VIB_PMIC4_ConfigC2EPNS_11PmicDevices10PmicDeviceE
0x8ff14bdd T _ZN11PmicObjects3VIB5PMIC49VIB_PMIC4C1EPNS_11PmicDevices10PmicDeviceE
0x8ff14bdd T _ZN11PmicObjects3VIB5PMIC49VIB_PMIC4C2EPNS_11PmicDevices10PmicDeviceE
0x8ff14c0d T _ZN11PmicObjects4COMM11CommManager12GetSingletonEv
0x8ff14c19 T _ZN11PmicObjects4COMM11CommManager15CreateSingletonEt
0x8ff14c45 T _ZN11PmicObjects4COMM11CommManager16AddCommInterfaceENS_11PmicDevices11DeviceIndexERNS0_8CommInfoE
0x8ff14c93 T _ZN11PmicObjects4COMM11CommManager16CreateModuleCommENS_11PmicDevices11DeviceIndexERNS0_8CommInfoEPPNS0_5ICommES8_
0x8ff14cd1 T _ZN11PmicObjects4COMM11CommManager16ResetNumberCommsEt
0x8ff14d07 T _ZN11PmicObjects4COMM11CommManager7GetCommENS_11PmicDevices11DeviceIndexE
0x8ff14d11 T _ZN11PmicObjects4COMM11CommManagerC1Et
0x8ff14d11 T _ZN11PmicObjects4COMM11CommManagerC2Et
0x8ff14d31 T _ZN11PmicObjects4COMM5ICommC2EPPS1_NS0_8CommTypeE
0x8ff14d4d T _ZN11PmicObjects4COMM8CommInfo23IsDeviceInfoInitializedEv
0x8ff14d51 T _ZN11PmicObjects4COMM8CommInfo24SetDeviceModelAndVariantE13pm_model_typehm
0x8ff14d5d T _ZN11PmicObjects4COMM8CommInfo25GetptrCustomDataStructureEv
0x8ff14d61 T _ZN11PmicObjects4COMM8CommInfoC1E10DeviceTypehNS0_8CommTypeEPNS_11PmicDevices10DeviceInfoEPv
0x8ff14d61 T _ZN11PmicObjects4COMM8CommInfoC2E10DeviceTypehNS0_8CommTypeEPNS_11PmicDevices10DeviceInfoEPv
0x8ff14da5 T _ZN11PmicObjects4COMM8CommInfoC1ERKS1_
0x8ff14da5 T _ZN11PmicObjects4COMM8CommInfoC2ERKS1_
0x8ff14dd9 T _ZN11PmicObjects4COMM8CommInfoD1Ev
0x8ff14dd9 T _ZN11PmicObjects4COMM8CommInfoD2Ev
0x8ff14ddd T _ZN11PmicObjects4COMM8SSBI_2_011pm_sbi_initEv
0x8ff14e55 T _ZN11PmicObjects4COMM8SSBI_2_013WriteByteMaskEthh
0x8ff14e9f T _ZN11PmicObjects4COMM8SSBI_2_021BankedReadModifyWriteEhthh
0x8ff14eff T _ZN11PmicObjects4COMM8SSBI_2_08ReadByteEtPh
0x8ff14f17 T _ZN11PmicObjects4COMM8SSBI_2_09WriteByteEth
0x8ff14f29 T _ZN11PmicObjects4COMM8SSBI_2_0C1EPPNS0_5ICommEPv
0x8ff14f29 T _ZN11PmicObjects4COMM8SSBI_2_0C2EPPNS0_5ICommEPv
0x8ff14f55 T _ZN11PmicObjects4GPIO5IGPIOC2EPNS_11PmicDevices10PmicDeviceE
0x8ff14f69 T _ZN11PmicObjects4GPIO5PMIC410GPIO_PMIC4C1EPNS_11PmicDevices10PmicDeviceE
0x8ff14f69 T _ZN11PmicObjects4GPIO5PMIC410GPIO_PMIC4C2EPNS_11PmicDevices10PmicDeviceE
0x8ff14fc1 T _ZN11PmicObjects4GPIO5PMIC417GPIO_PMIC4_ConfigC1EPNS_11PmicDevices10PmicDeviceE
0x8ff14fc1 T _ZN11PmicObjects4GPIO5PMIC417GPIO_PMIC4_ConfigC2EPNS_11PmicDevices10PmicDeviceE
0x8ff1500d T _ZN11PmicObjects4MISC5IMISCC2EPNS_11PmicDevices10PmicDeviceE
0x8ff15021 T _ZN11PmicObjects4MISC5PMIC410MISC_PMIC4C1EPNS_11PmicDevices10PmicDeviceE
0x8ff15021 T _ZN11PmicObjects4MISC5PMIC410MISC_PMIC4C2EPNS_11PmicDevices10PmicDeviceE
0x8ff1503d T _ZN11PmicObjects4MISC5PMIC417MISC_PMIC4_ConfigC1EPNS_11PmicDevices10PmicDeviceE
0x8ff1503d T _ZN11PmicObjects4MISC5PMIC417MISC_PMIC4_ConfigC2EPNS_11PmicDevices10PmicDeviceE
0x8ff1508d T _ZN11PmicObjects4SMBC5ISMBCC2EPNS_11PmicDevices10PmicDeviceE
0x8ff150a1 T _ZN11PmicObjects4SMBC5PMIC410SMBC_PMIC4C1EPNS_11PmicDevices10PmicDeviceE
0x8ff150a1 T _ZN11PmicObjects4SMBC5PMIC410SMBC_PMIC4C2EPNS_11PmicDevices10PmicDeviceE
0x8ff15175 T _ZN11PmicObjects4SMBC5PMIC417SMBC_PMIC4_ConfigC1EPNS_11PmicDevices10PmicDeviceE
0x8ff15175 T _ZN11PmicObjects4SMBC5PMIC417SMBC_PMIC4_ConfigC2EPNS_11PmicDevices10PmicDeviceE
0x8ff151e1 T _ZN11PmicObjects4SMPS17IPwrBuckClkSourceC2EPNS_11PmicDevices10PmicDeviceEPNS2_12PmicResourceE
0x8ff151f9 T _ZN11PmicObjects4SMPS17IVregV2BuckConfigC2EPNS_11PmicDevices10PmicDeviceEPNS2_12PmicResourceE
0x8ff15211 T _ZN11PmicObjects4SMPS20IPwrBuckInductorILimC2EPNS_11PmicDevices10PmicDeviceEPNS2_12PmicResourceE
0x8ff15229 T _ZN11PmicObjects4SMPS20IPwrBuckSwitchDriverC2EPNS_11PmicDevices10PmicDeviceEPNS2_12PmicResourceE
0x8ff15241 T _ZN11PmicObjects4SMPS21IPwrBuckSwitchingFreqC2EPNS_11PmicDevices10PmicDeviceEPNS2_12PmicResourceE
0x8ff15259 T _ZN11PmicObjects4SMPS21PwrBuckClkSourceAlgV1C1EPNS_11PmicDevices10PmicDeviceEPNS2_12PmicResourceE
0x8ff15259 T _ZN11PmicObjects4SMPS21PwrBuckClkSourceAlgV1C2EPNS_11PmicDevices10PmicDeviceEPNS2_12PmicResourceE
0x8ff152cd T _ZN11PmicObjects4SMPS21PwrBuckClkSourceAlgV2C1EPNS_11PmicDevices10PmicDeviceEPNS2_12PmicResourceE
0x8ff152cd T _ZN11PmicObjects4SMPS21PwrBuckClkSourceAlgV2C2EPNS_11PmicDevices10PmicDeviceEPNS2_12PmicResourceE
0x8ff15325 T _ZN11PmicObjects4SMPS21VregV2BuckConfigAlgV1C1EPNS_11PmicDevices10PmicDeviceEPNS2_12PmicResourceE
0x8ff15325 T _ZN11PmicObjects4SMPS21VregV2BuckConfigAlgV1C2EPNS_11PmicDevices10PmicDeviceEPNS2_12PmicResourceE
0x8ff15399 T _ZN11PmicObjects4SMPS21VregV2BuckConfigAlgV2C1EPNS_11PmicDevices10PmicDeviceEPNS2_12PmicResourceE
0x8ff15399 T _ZN11PmicObjects4SMPS21VregV2BuckConfigAlgV2C2EPNS_11PmicDevices10PmicDeviceEPNS2_12PmicResourceE
0x8ff1540d T _ZN11PmicObjects4SMPS23IPwrBuckPowerSwitchSizeC2EPNS_11PmicDevices10PmicDeviceEPNS2_12PmicResourceE
0x8ff15425 T _ZN11PmicObjects4SMPS24IVregV2AdvanceLegacyModeC2EPNS_11PmicDevices10PmicDeviceEPNS2_12PmicResourceE
0x8ff1543d T _ZN11PmicObjects4SMPS24PwrBuckInductorILimAlgV1C1EPNS_11PmicDevices10PmicDeviceEPNS2_12PmicResourceE
0x8ff1543d T _ZN11PmicObjects4SMPS24PwrBuckInductorILimAlgV1C2EPNS_11PmicDevices10PmicDeviceEPNS2_12PmicResourceE
0x8ff154b1 T _ZN11PmicObjects4SMPS24PwrBuckInductorILimAlgV2C1EPNS_11PmicDevices10PmicDeviceEPNS2_12PmicResourceE
0x8ff154b1 T _ZN11PmicObjects4SMPS24PwrBuckInductorILimAlgV2C2EPNS_11PmicDevices10PmicDeviceEPNS2_12PmicResourceE
0x8ff15509 T _ZN11PmicObjects4SMPS24PwrBuckSwitchDriverAlgV1C1EPNS_11PmicDevices10PmicDeviceEPNS2_12PmicResourceE
0x8ff15509 T _ZN11PmicObjects4SMPS24PwrBuckSwitchDriverAlgV1C2EPNS_11PmicDevices10PmicDeviceEPNS2_12PmicResourceE
0x8ff1557d T _ZN11PmicObjects4SMPS24PwrBuckSwitchDriverAlgV2C1EPNS_11PmicDevices10PmicDeviceEPNS2_12PmicResourceE
0x8ff1557d T _ZN11PmicObjects4SMPS24PwrBuckSwitchDriverAlgV2C2EPNS_11PmicDevices10PmicDeviceEPNS2_12PmicResourceE
0x8ff155d5 T _ZN11PmicObjects4SMPS25PwrBuckSwitchingFreqAlgV1C1EPNS_11PmicDevices10PmicDeviceEPNS2_12PmicResourceE
0x8ff155d5 T _ZN11PmicObjects4SMPS25PwrBuckSwitchingFreqAlgV1C2EPNS_11PmicDevices10PmicDeviceEPNS2_12PmicResourceE
0x8ff15649 T _ZN11PmicObjects4SMPS25PwrBuckSwitchingFreqAlgV2C1EPNS_11PmicDevices10PmicDeviceEPNS2_12PmicResourceE
0x8ff15649 T _ZN11PmicObjects4SMPS25PwrBuckSwitchingFreqAlgV2C2EPNS_11PmicDevices10PmicDeviceEPNS2_12PmicResourceE
0x8ff156a1 T _ZN11PmicObjects4SMPS26IVregV2CoreRailAdvanceModeC2EPNS_11PmicDevices10PmicDeviceEPNS2_12PmicResourceE
0x8ff156b9 T _ZN11PmicObjects4SMPS27PwrBuckPowerSwitchSizeAlgV1C1EPNS_11PmicDevices10PmicDeviceEPNS2_12PmicResourceE
0x8ff156b9 T _ZN11PmicObjects4SMPS27PwrBuckPowerSwitchSizeAlgV1C2EPNS_11PmicDevices10PmicDeviceEPNS2_12PmicResourceE
0x8ff1572d T _ZN11PmicObjects4SMPS27PwrBuckPowerSwitchSizeAlgV2C1EPNS_11PmicDevices10PmicDeviceEPNS2_12PmicResourceE
0x8ff1572d T _ZN11PmicObjects4SMPS27PwrBuckPowerSwitchSizeAlgV2C2EPNS_11PmicDevices10PmicDeviceEPNS2_12PmicResourceE
0x8ff15785 T _ZN11PmicObjects4SMPS28VregV2AdvanceLegacyModeAlgV1C1EPNS_11PmicDevices10PmicDeviceEPNS2_12PmicResourceE
0x8ff15785 T _ZN11PmicObjects4SMPS28VregV2AdvanceLegacyModeAlgV1C2EPNS_11PmicDevices10PmicDeviceEPNS2_12PmicResourceE
0x8ff157f9 T _ZN11PmicObjects4SMPS30VregV2CoreRailAdvanceModeAlgV1C1EPNS_11PmicDevices10PmicDeviceEPNS2_12PmicResourceE
0x8ff157f9 T _ZN11PmicObjects4SMPS30VregV2CoreRailAdvanceModeAlgV1C2EPNS_11PmicDevices10PmicDeviceEPNS2_12PmicResourceE
0x8ff1586d T _ZN11PmicObjects4SMPS5PMIC416FTS_PMIC4_ConfigC1EPNS_11PmicDevices10PmicDeviceE
0x8ff1586d T _ZN11PmicObjects4SMPS5PMIC416FTS_PMIC4_ConfigC2EPNS_11PmicDevices10PmicDeviceE
0x8ff159c5 T _ZN11PmicObjects4SMPS5PMIC416HFS_PMIC4_ConfigC1EPNS_11PmicDevices10PmicDeviceE
0x8ff159c5 T _ZN11PmicObjects4SMPS5PMIC416HFS_PMIC4_ConfigC2EPNS_11PmicDevices10PmicDeviceE
0x8ff15b41 T _ZN11PmicObjects4SMPS5PMIC49FTS_PMIC4C1EPNS_11PmicDevices10PmicDeviceE
0x8ff15b41 T _ZN11PmicObjects4SMPS5PMIC49FTS_PMIC4C2EPNS_11PmicDevices10PmicDeviceE
0x8ff15b5d T _ZN11PmicObjects4SMPS5PMIC49HFS_PMIC4C1EPNS_11PmicDevices10PmicDeviceE
0x8ff15b5d T _ZN11PmicObjects4SMPS5PMIC49HFS_PMIC4C2EPNS_11PmicDevices10PmicDeviceE
0x8ff15b75 T _ZN11PmicObjects4SMPS7HfsBaseC1EPNS_11PmicDevices10PmicDeviceE
0x8ff15b75 T _ZN11PmicObjects4SMPS7HfsBaseC2EPNS_11PmicDevices10PmicDeviceE
0x8ff15b91 T _ZN11PmicObjects4SMPS8BuckBaseC1ENS_11PmicDevices10ModuleTypeEPNS2_10PmicDeviceE
0x8ff15b91 T _ZN11PmicObjects4SMPS8BuckBaseC2ENS_11PmicDevices10ModuleTypeEPNS2_10PmicDeviceE
0x8ff15bbd T _ZN11PmicObjects4TALM5ITALMC2EPNS_11PmicDevices10PmicDeviceE
0x8ff15bd1 T _ZN11PmicObjects4TALM5PMIC410TALM_PMIC4C1EPNS_11PmicDevices10PmicDeviceE
0x8ff15bd1 T _ZN11PmicObjects4TALM5PMIC410TALM_PMIC4C2EPNS_11PmicDevices10PmicDeviceE
0x8ff15c25 T _ZN11PmicObjects4TALM5PMIC417TALM_PMIC4_ConfigC1EPNS_11PmicDevices10PmicDeviceE
0x8ff15c25 T _ZN11PmicObjects4TALM5PMIC417TALM_PMIC4_ConfigC2EPNS_11PmicDevices10PmicDeviceE
0x8ff15c75 T _ZN11PmicObjects4UVLO5IUVLOC2EPNS_11PmicDevices10PmicDeviceE
0x8ff15c89 T _ZN11PmicObjects4UVLO5PMIC410UVLO_PMIC4C1EPNS_11PmicDevices10PmicDeviceE
0x8ff15c89 T _ZN11PmicObjects4UVLO5PMIC410UVLO_PMIC4C2EPNS_11PmicDevices10PmicDeviceE
0x8ff15cb1 T _ZN11PmicObjects4UVLO5PMIC417UVLO_PMIC4_ConfigC1EPNS_11PmicDevices10PmicDeviceE
0x8ff15cb1 T _ZN11PmicObjects4UVLO5PMIC417UVLO_PMIC4_ConfigC2EPNS_11PmicDevices10PmicDeviceE
0x8ff15d1d T _ZN11PmicObjects5FLASH5PMIC411Flash_PMIC4C1EPNS_11PmicDevices10PmicDeviceE
0x8ff15d1d T _ZN11PmicObjects5FLASH5PMIC411Flash_PMIC4C2EPNS_11PmicDevices10PmicDeviceE
0x8ff15d55 T _ZN11PmicObjects5FLASH5PMIC418Flash_PMIC4_ConfigC1EPNS_11PmicDevices10PmicDeviceE
0x8ff15d55 T _ZN11PmicObjects5FLASH5PMIC418Flash_PMIC4_ConfigC2EPNS_11PmicDevices10PmicDeviceE
0x8ff15dc1 T _ZN11PmicObjects5FLASH6IFLASHC2EPNS_11PmicDevices10PmicDeviceE
0x8ff15dd5 T _ZN11PmicObjects5PWRON5PMIC411PWRON_PMIC413GetWdogStatusEPhi
0x8ff15e27 T _ZN11PmicObjects5PWRON5PMIC411PWRON_PMIC416GetPowerOnStatusEPmi
0x8ff15eb5 T _ZN11PmicObjects5PWRON5PMIC411PWRON_PMIC4C1EPNS_11PmicDevices10PmicDeviceE
0x8ff15eb5 T _ZN11PmicObjects5PWRON5PMIC411PWRON_PMIC4C2EPNS_11PmicDevices10PmicDeviceE
0x8ff15f31 T _ZN11PmicObjects5PWRON5PMIC418PWRON_PMIC4_ConfigC1EPNS_11PmicDevices10PmicDeviceE
0x8ff15f31 T _ZN11PmicObjects5PWRON5PMIC418PWRON_PMIC4_ConfigC2EPNS_11PmicDevices10PmicDeviceE
0x8ff15f9d T _ZN11PmicObjects5PWRON6IPWRONC2EPNS_11PmicDevices10PmicDeviceE
0x8ff15fb1 T _ZN11PmicObjects5VBATT5PMIC411Vbatt_PMIC416interruptHandlerEPv
0x8ff16085 T _ZN11PmicObjects5VBATT5PMIC411Vbatt_PMIC417voltageHasChangedEv
0x8ff1608f T _ZN11PmicObjects5VBATT5PMIC411Vbatt_PMIC422disableComparatorAlarmEi
0x8ff160c9 T _ZN11PmicObjects5VBATT5PMIC411Vbatt_PMIC423checkIfVbattTaskStartedEv
0x8ff160cf T _ZN11PmicObjects5VBATT5PMIC411Vbatt_PMIC423voltageChangeRegisteredEi
0x8ff160d9 T _ZN11PmicObjects5VBATT5PMIC411Vbatt_PMIC49vbattInitEi
0x8ff1610d T _ZN11PmicObjects5VBATT5PMIC411Vbatt_PMIC4C1EPNS_11PmicDevices10PmicDeviceE
0x8ff1610d T _ZN11PmicObjects5VBATT5PMIC411Vbatt_PMIC4C2EPNS_11PmicDevices10PmicDeviceE
0x8ff16171 T _ZN11PmicObjects5VBATT5PMIC418Vbatt_PMIC4_ConfigC1EPNS_11PmicDevices10PmicDeviceE
0x8ff16171 T _ZN11PmicObjects5VBATT5PMIC418Vbatt_PMIC4_ConfigC2EPNS_11PmicDevices10PmicDeviceE
0x8ff16221 T _ZN11PmicObjects5VBATT6IVBATTC2EPNS_11PmicDevices10PmicDeviceE
0x8ff16235 T _ZN11PmicObjects6KEYPAD5PMIC412Keypad_PMIC4C1EPNS_11PmicDevices10PmicDeviceE
0x8ff16235 T _ZN11PmicObjects6KEYPAD5PMIC412Keypad_PMIC4C2EPNS_11PmicDevices10PmicDeviceE
0x8ff162a1 T _ZN11PmicObjects6KEYPAD5PMIC419Keypad_PMIC4_ConfigC1EPNS_11PmicDevices10PmicDeviceE
0x8ff162a1 T _ZN11PmicObjects6KEYPAD5PMIC419Keypad_PMIC4_ConfigC2EPNS_11PmicDevices10PmicDeviceE
0x8ff1630d T _ZN11PmicObjects6KEYPAD7IKEYPADC2EPNS_11PmicDevices10PmicDeviceE
0x8ff16321 T _ZN11PmicObjects6MEGAXO5PMIC413MEGA_XO_PMIC4C1EPNS_11PmicDevices10PmicDeviceE
0x8ff16321 T _ZN11PmicObjects6MEGAXO5PMIC413MEGA_XO_PMIC4C2EPNS_11PmicDevices10PmicDeviceE
0x8ff16361 T _ZN11PmicObjects6MEGAXO5PMIC420MEGA_XO_PMIC4_ConfigC1EPNS_11PmicDevices10PmicDeviceE
0x8ff16361 T _ZN11PmicObjects6MEGAXO5PMIC420MEGA_XO_PMIC4_ConfigC2EPNS_11PmicDevices10PmicDeviceE
0x8ff163cd T _ZN11PmicObjects6MEGAXO7IMEGAXOC2EPNS_11PmicDevices10PmicDeviceE
0x8ff163e1 T _ZN11PmicObjects6Target12AppsProcBoot21AppsProcBootProcessor14CreateInstanceEv
0x8ff16409 T _ZN11PmicObjects6Target12AppsProcBoot21AppsProcBootProcessor15InitializeCommsEv
0x8ff1646d T _ZN11PmicObjects6Target12AppsProcBoot21AppsProcBootProcessor17CreateCommChannelERNS_4COMM8CommInfoEPPNS3_5ICommES8_
0x8ff164bb T _ZN11PmicObjects6Target12AppsProcBoot21AppsProcBootProcessor17InitializeDriversEv
0x8ff164cd T _ZN11PmicObjects6Target12AppsProcBoot21AppsProcBootProcessor18InitializeHardwareEv
0x8ff16527 T _ZN11PmicObjects6Target12AppsProcBoot21AppsProcBootProcessor18ResolvePmicVersionEPNS_4COMM8CommInfoE
0x8ff1653d T _ZN11PmicObjects6Target12AppsProcBoot21AppsProcBootProcessor20InitializeInterruptsEv
0x8ff16545 T _ZN11PmicObjects6Target12AppsProcBoot21AppsProcBootProcessorC1Ev
0x8ff16545 T _ZN11PmicObjects6Target12AppsProcBoot21AppsProcBootProcessorC2Ev
0x8ff1657d T _ZN11PmicObjects6Target12AppsProcBoot21AppsProcBootProcessorD0Ev
0x8ff1658d T _ZN11PmicObjects6Target12AppsProcBoot21AppsProcBootProcessorD1Ev
0x8ff1658d T _ZN11PmicObjects6Target12AppsProcBoot21AppsProcBootProcessorD2Ev
0x8ff165ad T _ZN11PmicObjects6Target12AppsProcBoot27AppsProcBootResourceManager13InitializeMapEv
0x8ff17819 T _ZN11PmicObjects6Target12AppsProcBoot27AppsProcBootResourceManager14InitializeIrqsEv
0x8ff1784d T _ZN11PmicObjects6Target12AppsProcBoot27AppsProcBootResourceManagerC1Eh
0x8ff1784d T _ZN11PmicObjects6Target12AppsProcBoot27AppsProcBootResourceManagerC2Eh
0x8ff1785d T _ZN11PmicObjects6Target12AppsProcBoot27AppsProcBootResourceManagerD0Ev
0x8ff1786b T _ZN11PmicObjects6Target12AppsProcBoot27AppsProcBootResourceManagerD1Ev
0x8ff1786b T _ZN11PmicObjects6Target12AppsProcBoot27AppsProcBootResourceManagerD2Ev
0x8ff1786f T _ZN11PmicObjects6Target6Common18ITargetInformation12GetIrqDomainEv
0x8ff17875 T _ZN11PmicObjects6Target6Common18TargetAccessHelper15CreateSingletonEPNS_20IBaseResourceManagerENS_13ProcessorTypeE
0x8ff1789d T _ZN11PmicObjects6Target6Common18TargetAccessHelper15DeleteSingletonEv
0x8ff178b9 T _ZN11PmicObjects6Target6Common18TargetAccessHelper26GetResourceMasterProcessorEi
0x8ff178cb T _ZN11PmicObjects6Target6Common18TargetAccessHelper8IsMasterEi
0x8ff178e5 T _ZN11PmicObjects6Target6Common18TargetAccessHelperC1EPNS_20IBaseResourceManagerENS_13ProcessorTypeE
0x8ff178e5 T _ZN11PmicObjects6Target6Common18TargetAccessHelperC2EPNS_20IBaseResourceManagerENS_13ProcessorTypeE
0x8ff178f5 T _ZN11PmicObjects6Target6Common18TargetAccessHelperD0Ev
0x8ff17903 T _ZN11PmicObjects6Target6Common18TargetAccessHelperD1Ev
0x8ff17903 T _ZN11PmicObjects6Target6Common18TargetAccessHelperD2Ev
0x8ff17905 T _ZN11PmicObjects6Target6Common21TargetSpecificSetting12GetSingletonEv
0x8ff17921 T _ZN11PmicObjects6Target6Common21TargetSpecificSetting15DeleteSingletonEv
0x8ff1793d T _ZN11PmicObjects6Target6Common21TargetSpecificSetting21GetModuleRegisterInfoENS_11PmicDevices10ModuleTypeEh
0x8ff17947 T _ZN11PmicObjects6Target6Common21TargetSpecificSetting21GetTargetSpecificInfoENS_11PmicDevices10ModuleTypeEhNS_13ProcessorTypeE
0x8ff17951 T _ZN11PmicObjects6Target6Common21TargetSpecificSetting26GetModuleCommonSettingInfoENS_11PmicDevices10ModuleTypeEh
0x8ff1795d T _ZN11PmicObjects6Target6Common21TargetSpecificSettingC1Ev
0x8ff1795d T _ZN11PmicObjects6Target6Common21TargetSpecificSettingC2Ev
0x8ff179d1 T _ZN11PmicObjects6Target6Common21TargetSpecificSettingD1Ev
0x8ff179d1 T _ZN11PmicObjects6Target6Common21TargetSpecificSettingD2Ev
0x8ff179fb T _ZN11PmicObjects6Target6Common22TargetAccessHelperBase13GetModuleTypeEi
0x8ff17a17 T _ZN11PmicObjects6Target6Common22TargetAccessHelperBase17GetResourceAccessEi
0x8ff17a27 T _ZN11PmicObjects6Target6Common22TargetAccessHelperBase25TranslateExternalResourceEi
0x8ff17ca1 T _ZN11PmicObjects6Target6Common22TargetAccessHelperBaseC2EPNS_20IBaseResourceManagerENS_13ProcessorTypeE
0x8ff17cb1 T _ZN11PmicObjects6Target6Common22TargetAccessHelperBaseD0Ev
0x8ff17cbf T _ZN11PmicObjects6Target6Common22TargetAccessHelperBaseD1Ev
0x8ff17cbf T _ZN11PmicObjects6Target6Common22TargetAccessHelperBaseD2Ev
0x8ff17cc1 T _ZN11PmicObjects6Target6Common24TargetInformationAppBootC1Ev
0x8ff17cc1 T _ZN11PmicObjects6Target6Common24TargetInformationAppBootC2Ev
0x8ff17cf1 T _ZN11PmicObjects6Target6Common24TargetInformationAppBootD0Ev
0x8ff17cff T _ZN11PmicObjects6Target6Common24TargetInformationAppBootD1Ev
0x8ff17cff T _ZN11PmicObjects6Target6Common24TargetInformationAppBootD2Ev
0x8ff17d01 T _ZN11PmicObjects6Target6Common25AppsBootSettingsRegisters20GetModuleSettingInfoENS_11PmicDevices10ModuleTypeEh
0x8ff17e19 T _ZN11PmicObjects6Target6Common25AppsBootSettingsRegisters21GetModuleRegisterInfoENS_11PmicDevices10ModuleTypeEh
0x8ff17f91 T _ZN11PmicObjects6Target6Common25AppsBootSettingsRegisters26GetModuleCommonSettingInfoENS_11PmicDevices10ModuleTypeEh
0x8ff18105 T _ZN11PmicObjects6Target6Common25AppsBootSettingsRegistersC1Ev
0x8ff18105 T _ZN11PmicObjects6Target6Common25AppsBootSettingsRegistersC2Ev
0x8ff18111 T _ZN11PmicObjects7ARB_ADC5PMIC413ARB_ADC_PMIC410ConvSeqSetEi15pm_adc_cmd_type
0x8ff18143 T _ZN11PmicObjects7ARB_ADC5PMIC413ARB_ADC_PMIC411ConvTrigSetEi21pm_adc_conv_trig_type
0x8ff18177 T _ZN11PmicObjects7ARB_ADC5PMIC413ARB_ADC_PMIC414HoldoffTimeSetEim
0x8ff181b5 T _ZN11PmicObjects7ARB_ADC5PMIC413ARB_ADC_PMIC416ConvSeqStatusGetEiP27pm_adc_conv_seq_status_type
0x8ff18211 T _ZN11PmicObjects7ARB_ADC5PMIC413ARB_ADC_PMIC417ConvSeqTimeoutSetEim
0x8ff18245 T _ZN11PmicObjects7ARB_ADC5PMIC413ARB_ADC_PMIC417ConversionRateSetEi33pm_adc_xoadc_conversion_rate_type
0x8ff1827b T _ZN11PmicObjects7ARB_ADC5PMIC413ARB_ADC_PMIC417XoAdcPrescalarGetEihPhS3_
0x8ff182b9 T _ZN11PmicObjects7ARB_ADC5PMIC413ARB_ADC_PMIC418DecimationRatioSetEi34pm_adc_xoadc_decimation_ratio_type
0x8ff182ef T _ZN11PmicObjects7ARB_ADC5PMIC413ARB_ADC_PMIC419ConversionStatusGetEiP29pm_adc_conversion_status_type
0x8ff18339 T _ZN11PmicObjects7ARB_ADC5PMIC413ARB_ADC_PMIC420ConversionRequestSetEi24pm_adc_conv_req_cmd_type
0x8ff18373 T _ZN11PmicObjects7ARB_ADC5PMIC413ARB_ADC_PMIC45SetUpEi
0x8ff183ad T _ZN11PmicObjects7ARB_ADC5PMIC413ARB_ADC_PMIC46ArbSetEi16pm_adc_mode_type
0x8ff18421 T _ZN11PmicObjects7ARB_ADC5PMIC413ARB_ADC_PMIC47AmuxSetEih15pm_adc_mux_type
0x8ff18465 T _ZN11PmicObjects7ARB_ADC5PMIC413ARB_ADC_PMIC47DataGetEiPm
0x8ff184bb T _ZN11PmicObjects7ARB_ADC5PMIC413ARB_ADC_PMIC48InputSetEi30pm_adc_xoadc_input_select_type
0x8ff184f1 T _ZN11PmicObjects7ARB_ADC5PMIC413ARB_ADC_PMIC4C1EPNS_11PmicDevices10PmicDeviceE
0x8ff184f1 T _ZN11PmicObjects7ARB_ADC5PMIC413ARB_ADC_PMIC4C2EPNS_11PmicDevices10PmicDeviceE
0x8ff18571 T _ZN11PmicObjects7ARB_ADC5PMIC420ARB_ADC_PMIC4_ConfigC1EPNS_11PmicDevices10PmicDeviceE
0x8ff18571 T _ZN11PmicObjects7ARB_ADC5PMIC420ARB_ADC_PMIC4_ConfigC2EPNS_11PmicDevices10PmicDeviceE
0x8ff185ed T _ZN11PmicObjects7ARB_ADC8IARB_ADCC2EPNS_11PmicDevices10PmicDeviceE
0x8ff18601 T _ZN11PmicObjects7COINCHG5PMIC413CoinChg_PMIC4C1EPNS_11PmicDevices10PmicDeviceE
0x8ff18601 T _ZN11PmicObjects7COINCHG5PMIC413CoinChg_PMIC4C2EPNS_11PmicDevices10PmicDeviceE
0x8ff18625 T _ZN11PmicObjects7COINCHG5PMIC420CoinChg_PMIC4_ConfigC1EPNS_11PmicDevices10PmicDeviceE
0x8ff18625 T _ZN11PmicObjects7COINCHG5PMIC420CoinChg_PMIC4_ConfigC2EPNS_11PmicDevices10PmicDeviceE
0x8ff18691 T _ZN11PmicObjects7COINCHG8ICOINCHGC2EPNS_11PmicDevices10PmicDeviceE
0x8ff186a5 T _ZdaPv
0x8ff186a9 T _ZdlPv
0x8ff186ad T _Znaj
0x8ff186d5 T _Znwj
0x8ff186fd T __cxa_pure_virtual
0x8ff1870c A __rt_raise
0x8ff18794 A _delay
0x8ff18824 A _f_addentry
0x8ff18ce4 A _f_addlfn
0x8ff19024 A _f_alloc_cluster_for_dir
0x8ff1911c A _f_alloccluster
0x8ff192b0 A _f_allocnextcluster
0x8ff1947c A _f_check_handle
0x8ff194bc A _f_checkappendlocked
0x8ff19550 A _f_checklocked
0x8ff1963c A _f_checkreadlocked
0x8ff19738 A _f_checkstatus
0x8ff198a4 A _f_clustertopos
0x8ff19914 A _f_cmp_wname
0x8ff19ae8 A _f_dobadblock
0x8ff19ca0 A _f_drivenum_to_index
0x8ff19d1c A _f_drvreadsector
0x8ff19e04 A _f_emptywritebuffer
0x8ff19f18 A _f_emptywritecache
0x8ff1a164 A _f_fatcache_flush
0x8ff1a3e4 A _f_findopensize
0x8ff1a704 A _f_fseek
0x8ff1a9c8 A _f_get16bitl
0x8ff1a9d8 A _f_get32bitl
0x8ff1ab94 A _f_getclustervalue
0x8ff1acd4 A _f_getcurrsector
0x8ff1aed4 A _f_getdecluster
0x8ff1af14 A _f_getdirsector
0x8ff1b1bc A _f_getmaxcluster
0x8ff1b1ec A _f_getvolume
0x8ff1b388 A _f_initentry
0x8ff1b3f0 A _f_mutex_get
0x8ff1b408 A _f_mutex_put
0x8ff1b93c A _f_readsector
0x8ff1ba34 A _f_removechain
0x8ff1bddc A _f_set16bitl
0x8ff1bdec A _f_set32bitl
0x8ff1be0c A _f_setclustervalue
0x8ff1bfc8 A _f_setdecluster
0x8ff1c1b0 A _f_syncfiles
0x8ff1c2a8 A _f_syncfilescontent
0x8ff1c368 A _f_updatefileentry
0x8ff1c4a0 A _f_writedirsector
0x8ff1c520 A _f_writefatsector
0x8ff1c5a0 A _f_writesector
0x8ff1c5b4 A _f_writesector_is_udata
0x8ff1c6d0 A _f_writesector_udata
0x8ff1c6e4 A _f_writezeros
0x8ff1c828 A _fn_initseekdivisor
0x8ff1c8b8 A _fn_removeseekpos
0x8ff1c904 A _fn_updateseekpos
0x8ff1c9b4 A add
0x8ff1ccfc A appsbl_jump_func
0x8ff1cd4c A bLoad8
0x8ff1cd68 A bStor8
0x8ff1cd90 A blockdev_close
0x8ff1cde4 A blockdev_devnull_get_ops
0x8ff1cedc A blockdev_driver_get_total_devices
0x8ff1cee4 A blockdev_find_by_type
0x8ff1cf44 A blockdev_get_device_size
0x8ff1cf84 A blockdev_get_entire_device_id
0x8ff1cfb4 A blockdev_get_name
0x8ff1cfdc A blockdev_get_type
0x8ff1d004 A blockdev_init
0x8ff1d054 A blockdev_is_embedded_device
0x8ff1d084 A blockdev_is_present
0x8ff1d0b4 A blockdev_open
0x8ff1d0f0 A blockdev_read
0x8ff1d158 A blockdev_reset
0x8ff1d1d0 A blockdev_sd_device_data_init
0x8ff1d264 A blockdev_sd_get_device_data
0x8ff1d420 A blockdev_sd_get_ops
0x8ff1d7d4 A blockdev_uwrite
0x8ff1d83c A blockdev_write
0x8ff1d8a4 A boot_auth_if_get_singleton
0x8ff1d8e0 A boot_auth_if_lock_singleton
0x8ff1d924 A boot_auth_if_register_singleton
0x8ff1d96c A boot_auth_if_singleton_exists
0x8ff1d984 A boot_auth_image
0x8ff1d988 A boot_auth_init_and_register
0x8ff1d9d4 A boot_auth_load_header
0x8ff1da10 A boot_cache_mmu_re_enable
0x8ff1da14 A boot_cache_set_memory_barrier
0x8ff1da58 A boot_clobber_add_global_protection_region
0x8ff1dabc A boot_clobber_add_local_hole
0x8ff1db20 A boot_clobber_check_global_address_range
0x8ff1dbd4 A boot_clobber_check_global_whitelist_range
0x8ff1dc84 A boot_clobber_check_local_address_range
0x8ff1dd4c A boot_clobber_import_whitelist_table
0x8ff1dd5c A boot_clobber_local_init
0x8ff1dd6c A boot_config_process_bl
0x8ff1e0f8 A boot_data_abort_c_handler
0x8ff1e10c A boot_dload_auth_flash_prog
0x8ff1e140 A boot_dload_check
0x8ff1e17c A boot_dload_entry
0x8ff1e1cc A boot_dload_if_get_singleton
0x8ff1e208 A boot_dload_if_lock_singleton
0x8ff1e24c A boot_dload_if_register_singleton
0x8ff1e294 A boot_dload_if_singleton_exists
0x8ff1e2ac A boot_dload_transition_pbl_forced_dload
0x8ff1e2dc A boot_do_procedures
0x8ff1e338 A boot_downloader
0x8ff1e3b8 A boot_err_fatal
0x8ff1e4c4 A boot_fiq_c_handler
0x8ff1e4e8 A boot_flash_dev_close_file
0x8ff1e508 A boot_flash_dev_close_image
0x8ff1e528 A boot_flash_dev_default_stub
0x8ff1e530 A boot_flash_dev_if_get_singleton
0x8ff1e56c A boot_flash_dev_if_lock_singleton
0x8ff1e5b0 A boot_flash_dev_if_register_singleton
0x8ff1e5f8 A boot_flash_dev_open_image
0x8ff1e618 A boot_flash_dev_sdcc_if_get_singleton
0x8ff1e654 A boot_flash_dev_sdcc_if_register_singleton
0x8ff1e69c A boot_flash_dev_sdcc_init_and_register
0x8ff1e714 A boot_flash_init
0x8ff1e76c A boot_flash_target_init
0x8ff1e7d4 A boot_flash_trans_read
0x8ff1e8d0 A boot_flash_trans_sdcc_factory_init
0x8ff1eb30 A boot_get_config_data_block
0x8ff1ebac A boot_get_ddr_info
0x8ff1ebf0 A boot_get_delta_time
0x8ff1ec20 A boot_get_time
0x8ff1ecd0 A boot_hash_if_lock_singleton
0x8ff1ed14 A boot_hash_if_register_singleton
0x8ff1ed5c A boot_hash_if_singleton_exists
0x8ff1ed74 A boot_hash_init_and_register
0x8ff1eda4 A boot_hw_reset
0x8ff1ee38 A boot_init_for_dload
0x8ff1ee3c A boot_init_timer
0x8ff1eec4 A boot_irq_c_handler
0x8ff1eee8 A boot_is_rollback_enabled
0x8ff1eefc A boot_jtag_term_putc
0x8ff1ef88 A boot_load_header_and_image
0x8ff1f130 A boot_load_ssd_partition
0x8ff1f1d8 A boot_log_delta_time
0x8ff1f200 A boot_log_dump
0x8ff1f208 A boot_log_forever_loop_check
0x8ff1f21c A boot_log_get_meta_info
0x8ff1f22c A boot_log_get_time
0x8ff1f230 A boot_log_init
0x8ff1f25c A boot_log_init_ram
0x8ff1f2f0 A boot_log_jtag_dump_buffer
0x8ff1f32c A boot_log_message
0x8ff1f34c A boot_log_message_ram
0x8ff1f4ac A boot_log_start_timer
0x8ff1f4b0 A boot_log_stop_timer
0x8ff1f4d8 A boot_nested_exception_c_handler
0x8ff1f4e8 A boot_pbl_get_flash_shared_data
0x8ff1f524 A boot_pbl_get_flash_type
0x8ff1f564 A boot_pbl_interface_init
0x8ff1f58c A boot_pbl_is_auth_enabled
0x8ff1f59c A boot_pbl_sha_hash
0x8ff1f5d9 T boot_pm_init
0x8ff1f628 A boot_populate_ram_partition_table
0x8ff1f6ec A boot_prefetch_abort_c_handler
0x8ff1fb5c A boot_qfprom_test
0x8ff1fbb8 A boot_ram_dumps_to_sd_card
0x8ff1fc80 A boot_ram_init
0x8ff1fd68 A boot_reserved_c_handler
0x8ff1fd8c A boot_rollback_blow_version
0x8ff1ff58 A boot_rollback_count_set_bits
0x8ff1ff78 A boot_rollback_read_failsafe_fuse_ver
0x8ff1ffac A boot_rollback_read_non_failsafe_fuse_version
0x8ff1ffc4 A boot_rollback_verify_version
0x8ff200c0 A boot_sbl_auth_image
0x8ff20268 A boot_set_ddr_info
0x8ff202d4 A boot_set_sdcc_boot_device_info
0x8ff20420 A boot_share_flash_data
0x8ff20424 A boot_smem_debug_init
0x8ff20428 A boot_smem_init
0x8ff20478 A boot_smem_store_battinfo
0x8ff204c4 A boot_smem_store_ddrinfo
0x8ff20510 A boot_smem_store_keyinfo
0x8ff2055c A boot_smem_store_pon_status
0x8ff20608 A boot_start_timer
0x8ff2062c A boot_stop_timer
0x8ff20698 A boot_strlen
0x8ff206b4 A boot_swi_c_handler
0x8ff206d8 A boot_undefined_instruction_c_handler
0x8ff206fc A busywait
0x8ff20764 A busywait_config_cpu_freq
0x8ff20788 A ceel_no_c_memcpy
0x8ff207ac A ceel_no_c_memset
0x8ff2091c A clk_regime_apps_init_boot
0x8ff20920 A clk_regime_init
0x8ff20acc A clk_regime_msm_enable
0x8ff20cac A crc_30_step
0x8ff20f18 A dci_dcache_flush
0x8ff20f1c A dci_dcache_inval
0x8ff211b8 A dci_init_phy
0x8ff213e8 A dev_sdcc_read_bytes
0x8ff2189c A dload_dbg_dump_mem
0x8ff21a14 A dload_dbg_dump_mem_unframed
0x8ff21ba0 A dload_dbg_info_cmd
0x8ff21d84 A dload_debug_add_region
0x8ff21e4c A dload_driver_get_active_interface
0x8ff21e5c A dload_driver_interface_clear
0x8ff21e8c A dload_driver_interface_to_install
0x8ff21eb8 A dload_driver_set_active_interface
0x8ff21fd4 A dload_mem_debug_desc
0x8ff22008 A dload_mem_debug_filename
0x8ff2203c A dload_mem_debug_init
0x8ff221e0 A dload_mem_debug_len
0x8ff2225c A dload_mem_debug_mem_base
0x8ff22290 A dload_mem_debug_mem_length
0x8ff222c4 A dload_mem_debug_num_ent
0x8ff222d4 A dload_mem_debug_save_pref
0x8ff22300 A dload_mem_debug_supported
0x8ff22308 A dload_mem_debug_target_init
0x8ff22660 A dload_mem_debug_verify_addr
0x8ff22758 A dload_packet_init
0x8ff22b30 A dload_switch_cmd
0x8ff22b64 A do_hotplug_init
0x8ff22b68 A driver_flush_transmit_buffer
0x8ff22bbc A driver_get_buffer_size
0x8ff22be0 A driver_hw_init
0x8ff22c34 A driver_images_transition
0x8ff22c78 A driver_is_crc_needed
0x8ff22c9c A driver_receive_bytes
0x8ff22d1c A driver_transmit_byte
0x8ff22d7c A driver_transmit_pkt
0x8ff23800 A efs_boot_initialize
0x8ff238c4 A efs_close
0x8ff2391c A efs_get_errno_address
0x8ff23934 A efs_handle_cookies
0x8ff23978 A efs_mount
0x8ff23a50 A efs_open
0x8ff23bfc A efs_unlink
0x8ff23cec A efs_write
0x8ff23e90 A err_Fatal3
0x8ff24758 A f_mutex_create
0x8ff24768 A f_mutex_delete
0x8ff24778 A f_mutex_get
0x8ff24794 A f_mutex_put
0x8ff247c4 A fill_lfn_entry
0x8ff24884 A find_bn_MSB
0x8ff249cc A fm_close
0x8ff24a08 A fm_delvolume
0x8ff24a44 A fm_enable_lfn_support
0x8ff24a48 A fm_ftruncate
0x8ff24a8c A fm_getfreespace
0x8ff24ad0 A fm_getlabel
0x8ff24b1c A fm_initvolume
0x8ff24b68 A fm_read
0x8ff24bbc A fm_seek
0x8ff24c08 A fm_setlabel
0x8ff24c4c A fm_wdelete
0x8ff24c88 A fm_wfindfirst
0x8ff24ccc A fm_wfindnext
0x8ff24d08 A fm_wmkdir
0x8ff24d44 A fm_wopen
0x8ff24d88 A fm_wrename
0x8ff24ea4 A fm_write
0x8ff24ef8 A fm_wrmdir
0x8ff24f34 A fm_wsetaccmodtime
0x8ff24f88 A fm_wsetattr
0x8ff24fcc A fm_wstat
0x8ff25010 A fnSetTask
0x8ff250fc A fn_close
0x8ff2524c A fn_createdriver
0x8ff252e0 A fn_delvolume
0x8ff253c0 A fn_enable_lfn_support
0x8ff253d0 A fn_ftruncate
0x8ff25438 A fn_getdrive
0x8ff25448 A fn_getfreespace
0x8ff25688 A fn_getlabel
0x8ff257bc A fn_getsize_from_fp
0x8ff257e0 A fn_gettaskID
0x8ff257e8 A fn_init
0x8ff25844 A fn_initvolume
0x8ff25910 A fn_initvolumepartition
0x8ff259a0 A fn_read
0x8ff25c54 A fn_releasedriver
0x8ff25ce8 A fn_seek
0x8ff25dac A fn_seteof
0x8ff25ec0 A fn_setlabel
0x8ff260c0 A fn_setlasterror
0x8ff260d0 A fn_setlasterror_noret
0x8ff260d8 A fn_wdelete
0x8ff262a0 A fn_wfindfirst
0x8ff26330 A fn_wfindnext
0x8ff264d4 A fn_wgetdcwd
0x8ff265ac A fn_wmkdir
0x8ff26938 A fn_wmove
0x8ff26f78 A fn_wopen
0x8ff27768 A fn_wrename
0x8ff27b14 A fn_write
0x8ff27e5c A fn_wrmdir
0x8ff280b8 A fn_wsetaccmodtime
0x8ff28214 A fn_wsetattr
0x8ff28364 A fn_wstat
0x8ff285a0 A fs_ConvertUTF16toUTF8
0x8ff286f8 A fs_ConvertUTF8toUTF16
0x8ff28960 A fs_cookie_get_cookie_id
0x8ff2899c A fs_cookie_get_start_address
0x8ff28acc A fs_cookie_iter_get_first
0x8ff28af0 A fs_cookie_iter_get_next
0x8ff28bf4 A fs_cookie_use_cookie_partition
0x8ff28cac A fs_desc_alloc
0x8ff28d2c A fs_desc_free
0x8ff28d38 A fs_desc_init
0x8ff28d4c A fs_desc_lookup
0x8ff28d78 A fs_efs2_unprotect_memory
0x8ff28d7c A fs_extfs_init
0x8ff28df8 A fs_fat_to_posix_time
0x8ff28e44 A fs_get_cookie
0x8ff28f44 A fs_global_lock
0x8ff28f48 A fs_global_lock_init
0x8ff28f4c A fs_global_unlock
0x8ff28f50 A fs_hfat_init
0x8ff28fa4 A fs_inode_construct
0x8ff29010 A fs_isLegalUTF8
0x8ff290e8 A fs_is_path_valid
0x8ff291f8 A fs_mount_init
0x8ff29244 A fs_mount_mount
0x8ff2927c A fs_mount_register
0x8ff292c8 A fs_mount_root
0x8ff29304 A fs_namei
0x8ff2963c A fs_nodevfs_init
0x8ff2967c A fs_os_self
0x8ff297bc A fs_posix_to_fat_date
0x8ff29810 A fs_posix_to_fat_time
0x8ff299a0 A fs_rmts_backup_cookie_handler
0x8ff29b84 A fs_rmts_load_efs_to_ram
0x8ff29bf8 A fs_rmts_recovery_cookie_handler
0x8ff29bfc A fs_romfs_init
0x8ff29c48 A fs_time
0x8ff29c7c A fs_time_ms_u64
0x8ff29c80 A fs_vnode_alloc
0x8ff29cbc A fs_vnode_getref
0x8ff29cc4 A fs_vnode_init
0x8ff29d1c A fs_vnode_invalid_borrow_ram
0x8ff29d28 A fs_vnode_invalid_chmod
0x8ff29d34 A fs_vnode_invalid_chown
0x8ff29d40 A fs_vnode_invalid_closedir
0x8ff29d4c A fs_vnode_invalid_create
0x8ff29d58 A fs_vnode_invalid_fs_init_complete
0x8ff29d64 A fs_vnode_invalid_get_device_attr
0x8ff29d70 A fs_vnode_invalid_get_fs_data
0x8ff29d7c A fs_vnode_invalid_get_group_info
0x8ff29d88 A fs_vnode_invalid_get_item
0x8ff29d94 A fs_vnode_invalid_get_volume_name
0x8ff29da0 A fs_vnode_invalid_getsize
0x8ff29dac A fs_vnode_invalid_getstat
0x8ff29db8 A fs_vnode_invalid_image_prepare
0x8ff29dc4 A fs_vnode_invalid_link
0x8ff29dd0 A fs_vnode_invalid_lock_efs
0x8ff29ddc A fs_vnode_invalid_lookup
0x8ff29de8 A fs_vnode_invalid_make_golden_copy
0x8ff29df4 A fs_vnode_invalid_mkdir
0x8ff29e00 A fs_vnode_invalid_mknod
0x8ff29e0c A fs_vnode_invalid_opendir
0x8ff29e14 A fs_vnode_invalid_put_item
0x8ff29e20 A fs_vnode_invalid_read
0x8ff29e2c A fs_vnode_invalid_readdir
0x8ff29e38 A fs_vnode_invalid_readlink
0x8ff29e44 A fs_vnode_invalid_rename
0x8ff29e50 A fs_vnode_invalid_rmdir
0x8ff29e5c A fs_vnode_invalid_set_quota
0x8ff29e68 A fs_vnode_invalid_set_reservation
0x8ff29e74 A fs_vnode_invalid_set_volume_name
0x8ff29e80 A fs_vnode_invalid_shred
0x8ff29e88 A fs_vnode_invalid_symlink
0x8ff29e94 A fs_vnode_invalid_sync_end
0x8ff29ea0 A fs_vnode_invalid_sync_get_status
0x8ff29eac A fs_vnode_invalid_sync_no_wait
0x8ff29eb8 A fs_vnode_invalid_sync_start
0x8ff29ec4 A fs_vnode_invalid_sync_wait
0x8ff29ed0 A fs_vnode_invalid_truncate
0x8ff29edc A fs_vnode_invalid_unlink
0x8ff29ee8 A fs_vnode_invalid_utime
0x8ff29ef4 A fs_vnode_invalid_write
0x8ff29f00 A fs_vnode_lookup
0x8ff29fd4 A fs_vnode_named_lookup
0x8ff2a0f0 A fs_vnode_ref
0x8ff2a100 A fs_vnode_unref
0x8ff2a16c A get_hotplug_dev_handle
0x8ff2a488 A get_partition_category
0x8ff2a4e4 A get_sfn_checksum
0x8ff2ac54 A handle_new_cbw
0x8ff2b3cc A hfat_allocate_f_lfnint_buffer
0x8ff2b434 A hfat_allocate_f_name_buffer
0x8ff2b498 A hfat_allocate_path_buffer
0x8ff2b4f8 A hfat_device_init
0x8ff2b5c4 A hfat_free_f_lfnint_buffer
0x8ff2b5e4 A hfat_free_f_name_buffer
0x8ff2b60c A hfat_free_path_buffer
0x8ff2b62c A hfat_get_hidden_sectors
0x8ff2b634 A hfat_getphy
0x8ff2b688 A hfat_getstatus
0x8ff2b690 A hfat_init
0x8ff2b694 A hfat_lfn_init
0x8ff2b6b8 A hfat_readmultiplesector
0x8ff2b6d8 A hfat_readsector
0x8ff2b8f0 A hfat_write_udata_multiplesector
0x8ff2b910 A hfat_write_udata_sector
0x8ff2b930 A hfat_writemultiplesector
0x8ff2b950 A hfat_writesector
0x8ff2bc70 A hotplug_add_hdev_to_phy_hdev
0x8ff2bd4c A hotplug_add_partition
0x8ff2bd7c A hotplug_change_physical_dev_state
0x8ff2bee8 A hotplug_close_device
0x8ff2bf3c A hotplug_close_device_by_handle
0x8ff2bfb4 A hotplug_close_device_by_image_type
0x8ff2c078 A hotplug_counters_init
0x8ff2c098 A hotplug_counters_update
0x8ff2c0f0 A hotplug_dev_get_size
0x8ff2c138 A hotplug_dev_is_present
0x8ff2c160 A hotplug_dev_read
0x8ff2c1c8 A hotplug_dev_write
0x8ff2c230 A hotplug_dev_write_udata
0x8ff2c2a4 A hotplug_discover_device
0x8ff2c488 A hotplug_fat_parse_check
0x8ff2c4e8 A hotplug_find_partition
0x8ff2c590 A hotplug_find_physical_device
0x8ff2c610 A hotplug_get_physical_start_sector
0x8ff2c61c A hotplug_gpt_parse_close
0x8ff2c62c A hotplug_gpt_parse_open
0x8ff2c6ec A hotplug_gpt_parse_read
0x8ff2c744 A hotplug_hdev_alloc
0x8ff2c7ac A hotplug_hdev_free
0x8ff2c7e8 A hotplug_init
0x8ff2c828 A hotplug_init_partitions
0x8ff2c974 A hotplug_is_it_a_fat_partition
0x8ff2c9b4 A hotplug_is_mbr_fat_partition
0x8ff2ca00 A hotplug_is_valid_hdev
0x8ff2ca2c A hotplug_is_valid_hdev_for_read_write
0x8ff2ca80 A hotplug_is_valid_parti
0x8ff2ca98 A hotplug_is_valid_physical_hdev
0x8ff2cae8 A hotplug_iter_close
0x8ff2cb08 A hotplug_iter_get_next
0x8ff2ce28 A hotplug_iter_init
0x8ff2ce38 A hotplug_iter_open
0x8ff2cea4 A hotplug_mbr_check_extended
0x8ff2cf2c A hotplug_mbr_parse_close
0x8ff2cf3c A hotplug_mbr_parse_open
0x8ff2cf74 A hotplug_mbr_read_extended
0x8ff2d078 A hotplug_mbr_read_primary
0x8ff2d118 A hotplug_open_device
0x8ff2d2a8 A hotplug_open_device_by_gpt_partition_type
0x8ff2d320 A hotplug_open_device_by_partition_type
0x8ff2d380 A hotplug_partition_alloc
0x8ff2d3f4 A hotplug_partition_ref
0x8ff2d44c A hotplug_partition_unref
0x8ff2d4d8 A hotplug_poll_before_mounting_root
0x8ff2d660 A hotplug_pparser_cache_init
0x8ff2d714 A hotplug_remove_hdev_from_phy_hdev
0x8ff2d754 A hotplug_set_general_partition_id
0x8ff2d79c A hotplug_task_discover_device
0x8ff2d880 A hotplug_validate_physical_hdev
0x8ff2d948 A hw_init_smem
0x8ff2da30 A hw_msm_id
0x8ff2da94 A hw_msm_version
0x8ff2daf8 A hw_raw_id
0x8ff2db28 A hw_raw_version
0x8ff2db58 A init_scsi_params
0x8ff2db90 A inverse32
0x8ff2dbf4 A is_trailing_dot_or_doubledots
0x8ff2dcf4 A isonlydotordoubledots
0x8ff2dd2c A isonlydotsandspaces
0x8ff2dd50 A mmu_add_pagetable
0x8ff2dd60 A mmu_create_pagetable
0x8ff2ddac A mmu_invalidate_pagetable
0x8ff2df60 A mod_exp
0x8ff2e2b0 A montmul_one_ref
0x8ff2e3c8 A montmul_ref
0x8ff2e694 A mult_R_mod_m
0x8ff2e9bc A pbl_clk_julian_to_secs
0x8ff2eb54 A pbl_secasn1_close_sequence
0x8ff2ebf4 A pbl_secasn1_decode_bit_string
0x8ff2ec5c A pbl_secasn1_decode_boolean
0x8ff2eca4 A pbl_secasn1_decode_length
0x8ff2ed40 A pbl_secasn1_decode_tag
0x8ff2ed94 A pbl_secasn1_decode_time
0x8ff2efe4 A pbl_secasn1_end
0x8ff2f030 A pbl_secasn1_next_field
0x8ff2f1c4 A pbl_secasn1_start
0x8ff2f25c A pbl_secx509_check_cert_list
0x8ff2f314 A pbl_secx509_check_issued
0x8ff2f3ec A pbl_secx509_check_purpose
0x8ff2f40c A pbl_secx509_get_asn1_cert_size
0x8ff2f48c A pbl_secx509_name_cmp
0x8ff2f4b0 A pbl_secx509_parse_auth_key_id
0x8ff2f57c A pbl_secx509_parse_basic_constraint
0x8ff2f678 A pbl_secx509_parse_cert_buffer
0x8ff2f83c A pbl_secx509_parse_certificate
0x8ff2fa4c A pbl_secx509_parse_dn
0x8ff2fe2c A pbl_secx509_parse_ex_key_usage
0x8ff2ffa4 A pbl_secx509_parse_extensions
0x8ff30270 A pbl_secx509_parse_gen_name_for_dir
0x8ff302e0 A pbl_secx509_parse_key_usage
0x8ff30378 A pbl_secx509_parse_pub_key
0x8ff3055c A pbl_secx509_parse_sig_algorithm
0x8ff30658 A pbl_secx509_parse_signature
0x8ff30720 A pbl_secx509_parse_unique_id
0x8ff30764 A pbl_secx509_parse_validity
0x8ff30850 A pbl_secx509_parse_version
0x8ff308c8 A pbl_secx509_skip_num_certs
0x8ff30ba5 T pm_adc_get_conv_sequencer_status
0x8ff30c0d T pm_adc_get_conversion_status
0x8ff30c75 T pm_adc_get_resource_prescalar
0x8ff30ce1 T pm_adc_get_xoadc_data
0x8ff30d49 T pm_adc_set_amux
0x8ff30db5 T pm_adc_set_conv_sequencer
0x8ff30e1d T pm_adc_set_conv_trig_condition
0x8ff30e85 T pm_adc_set_conversion_request
0x8ff30eed T pm_adc_set_holdoff_time
0x8ff30f55 T pm_adc_set_mode
0x8ff30fbd T pm_adc_set_timeout_time
0x8ff31025 T pm_adc_set_xoadc_conversion_rate
0x8ff3108d T pm_adc_set_xoadc_decimation_ratio
0x8ff310f5 T pm_adc_set_xoadc_input
0x8ff3115d T pm_get_pmic_model
0x8ff3116f T pm_get_pmic_revision
0x8ff31181 T pm_get_power_on_status
0x8ff311e5 T pm_get_rt_status
0x8ff31229 T pm_mpp_config_analog_input
0x8ff31295 T pm_mpp_config_i_sink
0x8ff31300 A pm_sbl3_app_set_mode
0x8ff31311 T pm_sbl3_driver_set_mode
0x8ff32678 A pm_sbl3_initialize_stages
0x8ff3278d T pm_wdog_status_get
0x8ff32b80 A pwroff_cmd
0x8ff32b9c A qhsusb_al_dload_drain
0x8ff32bc4 A qhsusb_al_dload_init
0x8ff32bfc A qhsusb_al_dload_receive_pkt
0x8ff32c98 A qhsusb_al_dload_shutdown
0x8ff32c9c A qhsusb_al_dload_transmit_byte
0x8ff32cc0 A qhsusb_al_dload_transmit_pkt
0x8ff32cec A qhsusb_boot_dload_armprg_transition
0x8ff32d1c A qhsusb_boot_dload_get_dload_info_ptr
0x8ff32d28 A qhsusb_boot_dload_is_dload_info_pid_valid
0x8ff32d4c A qhsusb_boot_dload_is_dload_info_serial_num_valid
0x8ff32d70 A qhsusb_dcd_control_transfer
0x8ff32db4 A qhsusb_dcd_init
0x8ff32e2c A qhsusb_dcd_poll
0x8ff32e3c A qhsusb_dcd_port_status_changed
0x8ff32f64 A qhsusb_dcd_set_config
0x8ff330cc A qhsusb_dcd_shutdown
0x8ff33114 A qhsusb_dci_cancel_transfer
0x8ff331ec A qhsusb_dci_cancel_transfer_wo_dqh_dtd
0x8ff33244 A qhsusb_dci_clk_disable
0x8ff3328c A qhsusb_dci_clk_enable
0x8ff3336c A qhsusb_dci_clk_is_usb_system_clk_on
0x8ff33374 A qhsusb_dci_config_endpoint
0x8ff3346c A qhsusb_dci_connect
0x8ff33494 A qhsusb_dci_dcache_flush
0x8ff33498 A qhsusb_dci_dcache_inval
0x8ff3349c A qhsusb_dci_delay_ms
0x8ff334c4 A qhsusb_dci_get_speed
0x8ff334dc A qhsusb_dci_init
0x8ff335b4 A qhsusb_dci_is_attached
0x8ff335e0 A qhsusb_dci_is_suspended
0x8ff33600 A qhsusb_dci_is_wall_charger
0x8ff33608 A qhsusb_dci_poll_events
0x8ff33690 A qhsusb_dci_read_scratch
0x8ff336d0 A qhsusb_dci_set_address
0x8ff336f8 A qhsusb_dci_set_enum_flag
0x8ff33708 A qhsusb_dci_set_max_packet_size
0x8ff33718 A qhsusb_dci_shutdown
0x8ff33798 A qhsusb_dci_stall_endpoint
0x8ff337e4 A qhsusb_dci_start_timer
0x8ff33858 A qhsusb_dci_stop_timer
0x8ff33898 A qhsusb_dci_transfer_request
0x8ff33944 A qhsusb_dci_ulpi_read
0x8ff339a4 A qhsusb_dci_ulpi_write
0x8ff33a24 A qhsusb_dci_unconfig_endpoint
0x8ff33a8c A qhsusb_dci_unstall_endpoint
0x8ff33ae8 A qhsusb_dci_usb_reset_assert
0x8ff33b20 A qhsusb_dci_usb_reset_deassert
0x8ff33b58 A qhsusb_dci_write_scratch
0x8ff33b98 A qhsusb_fd_hdlc_init
0x8ff33db0 A qhsusb_fd_hdlc_is_tx_active
0x8ff33ddc A qhsusb_fd_hdlc_rx_completed_int_buf_mode
0x8ff33dec A qhsusb_fd_hdlc_shutdown
0x8ff33df8 A qhsusb_fd_hdlc_tx_byte
0x8ff33e64 A qhsusb_fd_hdlc_tx_pkt
0x8ff33f9c A qhsusb_fd_ms_hotplug_dev_read
0x8ff33fdc A qhsusb_fd_ms_hotplug_dev_write
0x8ff3401c A qhsusb_fd_ms_init
0x8ff340d0 A qhsusb_fd_ms_send_request
0x8ff34134 A qhsusb_init
0x8ff34204 A qhsusb_ms_init
0x8ff3422c A qhsusb_submit_urb
0x8ff34284 A qmemcpy
0x8ff3458c A sbl3_boot_checkkey
0x8ff345b0 A sbl3_boot_logger_deinit
0x8ff34620 A sbl3_clk_regime_apps_init
0x8ff34648 A sbl3_clk_regime_ram_dump_init
0x8ff34668 A sbl3_disable_gmem_access
0x8ff34678 A sbl3_dload_init_and_register
0x8ff34698 A sbl3_efs_handle_cookies
0x8ff346f8 A sbl3_hw_deinit
0x8ff34728 A sbl3_hw_init
0x8ff347a0 A sbl3_hw_init_and_enter_dload
0x8ff347b4 A sbl3_hw_init_secondary
0x8ff3488c A sbl3_hw_platform
0x8ff34900 A sbl3_hw_wait_for_int
0x8ff34904 A sbl3_init_modules
0x8ff34944 A sbl3_main_ctl
0x8ff34a2c A sbl3_qfprom_test
0x8ff34b30 A sbl3_rollback_version_update
0x8ff34be4 A sbl3_signal_tz_sbl_done
0x8ff34c00 A sbl3_wait_rpm_boot
0x8ff34c5c A sbl_auth_authenticate
0x8ff34c8c A sbl_auth_authenticate_image_with_cookie
0x8ff34d1c A sbl_dload_entry
0x8ff34db4 A sbl_get_pagetable
0x8ff34ec4 A sdcc_activity_timeout_event
0x8ff34ecc A sdcc_boot_set_device_info
0x8ff34f08 A sdcc_bsp_config_clock
0x8ff35284 A sdcc_bsp_get_cache_align_size
0x8ff3528c A sdcc_bsp_get_max_supported_clk
0x8ff35298 A sdcc_bsp_get_slot_type
0x8ff352b4 A sdcc_bsp_gpio_control
0x8ff35324 A sdcc_bsp_hw_clk_busy_wait
0x8ff35390 A sdcc_bsp_to_clk
0x8ff353f0 A sdcc_bsp_vdd_configure
0x8ff35420 A sdcc_command
0x8ff35570 A sdcc_complete_data_xfer
0x8ff355d0 A sdcc_config_clk
0x8ff356c4 A sdcc_config_memory_device
0x8ff3581c A sdcc_config_mmc_bus_width
0x8ff35870 A sdcc_config_mmc_modes_segment
0x8ff35adc A sdcc_config_rca
0x8ff35c38 A sdcc_decode_extCSD
0x8ff35da8 A sdcc_decode_mmc_cid
0x8ff35e44 A sdcc_decode_scr
0x8ff35e88 A sdcc_decode_sd_cid
0x8ff35f0c A sdcc_decode_sd_status
0x8ff35fe4 A sdcc_decode_switch_data
0x8ff360e8 A sdcc_deinit
0x8ff36150 A sdcc_deregister_client_handle
0x8ff361d8 A sdcc_display_mem_device_info
0x8ff361e0 A sdcc_do_transfer
0x8ff363f4 A sdcc_find_mmc_device
0x8ff36488 A sdcc_find_sd_device
0x8ff365ac A sdcc_get_cid
0x8ff36628 A sdcc_get_config_info
0x8ff36654 A sdcc_get_ext_csd
0x8ff36694 A sdcc_get_memory_info
0x8ff367a8 A sdcc_get_scr
0x8ff36820 A sdcc_get_sd_speed_class
0x8ff3685c A sdcc_get_sd_status
0x8ff368dc A sdcc_get_slot_handle
0x8ff3692c A sdcc_handle_close
0x8ff3695c A sdcc_handle_find_card
0x8ff36a04 A sdcc_handle_is_mem_present
0x8ff36a64 A sdcc_handle_mem_get_device_info
0x8ff36bc4 A sdcc_handle_open
0x8ff36d24 A sdcc_handle_optimized_open
0x8ff36e64 A sdcc_handle_read
0x8ff36f54 A sdcc_handle_set_power_on_write_protection
0x8ff36f5c A sdcc_handle_write
0x8ff3704c A sdcc_init
0x8ff371b8 A sdcc_init_memory_device
0x8ff3724c A sdcc_init_pal
0x8ff37254 A sdcc_intf_on
0x8ff37260 A sdcc_is_device_still_in_use
0x8ff372b0 A sdcc_is_partial_enumeration
0x8ff372e0 A sdcc_mmc_get_phy_partition_info
0x8ff373d0 A sdcc_mmc_is_phy_partition_bootable
0x8ff37428 A sdcc_mmc_set_partition_access
0x8ff37490 A sdcc_mmc_switch
0x8ff375dc A sdcc_poll_status
0x8ff376b4 A sdcc_read_fifo
0x8ff377a4 A sdcc_register_client_handle
0x8ff3781c A sdcc_reset_reinit
0x8ff37894 A sdcc_sd_switch_to_hs
0x8ff37a14 A sdcc_select_card
0x8ff37a5c A sdcc_send_cmd
0x8ff37b38 A sdcc_send_status
0x8ff37b88 A sdcc_set_partition
0x8ff37bc8 A sdcc_set_sd_bus_width
0x8ff37c48 A sdcc_setup_data_xfer
0x8ff37ccc A sdcc_slot_has_support
0x8ff37d08 A sdcc_wait_card_ready
0x8ff37d50 A sdcc_wait_data_xfer_complete
0x8ff37db4 A sdcc_wait_prog_done
0x8ff37e30 A sdcc_write_fifo
0x8ff37f70 A secboot_hash
0x8ff37fcc A secboot_hashFinal
0x8ff380cc A secboot_hashInit
0x8ff38108 A secboot_hashUpdate
0x8ff3817c A secboot_verify_code_signature
0x8ff38594 A secboot_verify_x509_chain
0x8ff388a8 A secmath_BIGINT_modexp
0x8ff38980 A secmath_BIGINT_read_unsigned_bin
0x8ff38a68 A secmath_compare
0x8ff38aa4 A sending_csw
0x8ff38af8 A set_ms_packet_size
0x8ff38b24 A smem_alloc
0x8ff38cb4 A smem_boot_debug_init
0x8ff38d10 A smem_boot_init
0x8ff38e50 A smem_ext_get_smem_base
0x8ff38e58 A smem_ext_get_smem_size
0x8ff38e60 A smem_get_offset
0x8ff38f3c A smem_init
0x8ff38fe4 A smem_map_base_va
0x8ff38fe8 A smem_set_base_addr
0x8ff3900c A smem_spin_lock
0x8ff39048 A smem_spin_lock_cs_init
0x8ff39070 A smem_spin_lock_cs_lock
0x8ff39080 A smem_spin_lock_cs_unlock
0x8ff39090 A smem_spin_lock_init
0x8ff390a0 A smem_spin_unlock
0x8ff390dc A smem_version_set
0x8ff39154 A spin_lock_internal
0x8ff3917c A spin_unlock_internal
0x8ff39190 A strlcat
0x8ff39200 A strlcpy
0x8ff3925c A sub
0x8ff39940 A v_romfs_closedir
0x8ff39b34 A v_romfs_opendir
0x8ff39b70 A v_romfs_read
0x8ff39bb4 A v_romfs_readdir
0x8ff39c65 T vbatt_interrupt_handler
0x8ff3a138 A write_to_emmc_card
0x8ff3a180 A wstrlcpy
0x8ff3a1e1 T __aeabi_dadd
0x8ff3a1e1 T _dadd
0x8ff3a331 T __aeabi_d2uiz
0x8ff3a331 T _dfixu
0x8ff3a38b T __aeabi_ui2d
0x8ff3a38b T _dfltu
0x8ff3a3b1 T __aeabi_dmul
0x8ff3a3b1 T _dmul
0x8ff3a505 T __fpl_dnaninf
0x8ff3a5a1 T __fpl_dretinf
0x8ff3a5ad T __aeabi_dsub
0x8ff3a5ad T _dsub
0x8ff3a781 T __I$use$fp
0x8ff3a780 D crc30_table
0x8ff3ab80 D crc16_table
0x8ff3ad80 D crc_16_l_table
0x8ff3af80 D crc32_table
0x8ff3b5b8 D DALSystem_DriverInfo
0x8ff3c198 D smem_buf_data_tbl
0x8ff3c418 D mob_sw_rev
0x8ff3c504 D default_memory_map
0x8ff3c544 D cached_memory_map
0x8ff3c684 D device_memory_map
0x8ff3c8c8 D ClockLogDefaultConfig
0x8ff3c8d0 D ClockLegacyLUT
0x8ff3cc70 D DALClock_DriverInfo
0x8ff3ccfc D DALHWIO_DriverInfo
0x8ff3cd3c D DALChipInfo_DriverInfo
0x8ff3cd48 D DALTLMM_DriverInfo
0x8ff3cd54 D DALPlatformInfo_DriverInfo
0x8ff3cda8 D DALAdc_DriverInfo
0x8ff3cdb4 D DALXoAdc_DriverInfo
0x8ff3cdc0 D DALSBI_DriverInfo
0x8ff3d108 D pbl_secx509_ext_auth_key_id
0x8ff3d10b D pbl_secx509_ext_key_usage
0x8ff3d10e D pbl_secx509_ext_sub_alt_name
0x8ff3d111 D pbl_secx509_ext_basic_constraint
0x8ff3d114 D pbl_secx509_ext_name_constraint
0x8ff3d117 D pbl_secx509_ext_policy_constraint
0x8ff3d11a D pbl_secx509_ext_ex_key_usage
0x8ff3d11d D pbl_secx509_ext_cert_policies
0x8ff3d120 D sha1_codehash_str
0x8ff3d125 D debug_string
0x8ff3d12b D sw_id_string
0x8ff3d131 D hw_id_string
0x8ff3d137 D oem_string
0x8ff3d13e D sha256_codehash_str
0x8ff3d145 D pbl_secx509_ex_key_sauth
0x8ff3d14d D pbl_secx509_ex_key_cauth
0x8ff3d155 D pbl_secx509_ex_key_code
0x8ff3d15d D pbl_secx509_ex_key_email
0x8ff3d165 D pbl_secx509_ex_key_time
0x8ff3d16d D pbl_secx509_asn1_rsa
0x8ff3d176 D pbl_secx509_md5WithRSAEncryption
0x8ff3d17f D pbl_secx509_md2WithRSAEncryption
0x8ff3d188 D pbl_secx509_sha1WithRSAEncryption
0x8ff3d191 D pbl_secx509_sha256WithRSAEncryption
0x8ff3d19a D pbl_secx509_ex_key_ms_sgc
0x8ff3d1a4 D pbl_secx509_ex_key_ns_sgc
0x8ff3d518 D path_id
0x8ff3f444 D sbi_target_config
0x8ff3f4e8 D _ZTVN11PmicObjects10interrupts10IInterruptE
0x8ff3f524 D _ZTVN11PmicObjects10interrupts5PMIC416Interrupts_PMIC4E
0x8ff3f560 D _ZTVN11PmicObjects10interrupts5PMIC419Interrupts_V2_PMIC4E
0x8ff3f59c D _ZTVN11PmicObjects10interrupts5PMIC423Interrupts_PMIC4_ConfigE
0x8ff3f5d8 D _ZTVN11PmicObjects10interrupts5PMIC426Interrupts_V2_PMIC4_ConfigE
0x8ff3f614 D _ZTVN11PmicObjects11PmicDevices10PmicDeviceE
0x8ff3f624 D _ZTVN11PmicObjects11PmicDevices12PmicResourceE
0x8ff3f634 D _ZTVN11PmicObjects11PmicDevices15PmicSubResourceE
0x8ff3f644 D _ZTVN11PmicObjects11PmicDevices18AppsProcBootPM8821E
0x8ff3f66c D _ZTVN11PmicObjects11PmicDevices18AppsProcBootPM8921E
0x8ff3f698 D _ZTVN11PmicObjects11PmicDevices6PM8821E
0x8ff3f6a8 D _ZTVN11PmicObjects11PmicDevices6PM8921E
0x8ff3f6b8 D _ZTVN11PmicObjects15TargetProcessorE
0x8ff3f6f0 D _ZTVN11PmicObjects19BaseResourceManagerE
0x8ff3f714 D _ZTVN11PmicObjects2VS5PMIC411VS_V2_PMIC4E
0x8ff3f724 D _ZTVN11PmicObjects2VS5PMIC418VS_V2_PMIC4_ConfigE
0x8ff3f734 D _ZTVN11PmicObjects2VS6VsBaseE
0x8ff3f744 D _ZTVN11PmicObjects3CLK4ICLKE
0x8ff3f778 D _ZTVN11PmicObjects3CLK5PMIC414MEGA_CLK_PMIC4E
0x8ff3f7ac D _ZTVN11PmicObjects3CLK5PMIC416CLK_PMIC4_ConfigE
0x8ff3f7e0 D _ZTVN11PmicObjects3CLK5PMIC421MEGA_CLK_PMIC4_ConfigE
0x8ff3f814 D _ZTVN11PmicObjects3CLK5PMIC49CLK_PMIC4E
0x8ff3f848 D _ZTVN11PmicObjects3LDO10LinearBaseE
0x8ff3f858 D _ZTVN11PmicObjects3LDO16IPwrLinearBypassE
0x8ff3f86c D _ZTVN11PmicObjects3LDO17IVregV2LpModeCtrlE
0x8ff3f880 D _ZTVN11PmicObjects3LDO20PwrLinearBypassAlgV1E
0x8ff3f894 D _ZTVN11PmicObjects3LDO21IVregV2LpForceLpmCtrlE
0x8ff3f8a8 D _ZTVN11PmicObjects3LDO21VregV2LpModeCtrlAlgV1E
0x8ff3f8bc D _ZTVN11PmicObjects3LDO21VregV2LpModeCtrlAlgV2E
0x8ff3f8d0 D _ZTVN11PmicObjects3LDO23IVregV2LpModeAndPinCtrlE
0x8ff3f8e4 D _ZTVN11PmicObjects3LDO25VregV2LpForceLpmCtrlAlgV1E
0x8ff3f8f8 D _ZTVN11PmicObjects3LDO25VregV2LpForceLpmCtrlAlgV2E
0x8ff3f90c D _ZTVN11PmicObjects3LDO27VregV2LpModeAndPinCtrlAlgV1E
0x8ff3f920 D _ZTVN11PmicObjects3LDO27VregV2LpModeAndPinCtrlAlgV2E
0x8ff3f934 D _ZTVN11PmicObjects3LDO5PMIC411LNLDO_PMIC4E
0x8ff3f944 D _ZTVN11PmicObjects3LDO5PMIC412LDO_V2_PMIC4E
0x8ff3f954 D _ZTVN11PmicObjects3LDO5PMIC418LNLDO_PMIC4_ConfigE
0x8ff3f964 D _ZTVN11PmicObjects3LDO5PMIC419LDO_V2_PMIC4_ConfigE
0x8ff3f974 D _ZTVN11PmicObjects3LDO7LdoBaseE
0x8ff3f984 D _ZTVN11PmicObjects3LDO9LnldoBaseE
0x8ff3f994 D _ZTVN11PmicObjects3LPG4ILPGE
0x8ff3f9f8 D _ZTVN11PmicObjects3LPG5PMIC416LPG_PMIC4_ConfigE
0x8ff3fa5c D _ZTVN11PmicObjects3LPG5PMIC49LPG_PMIC4E
0x8ff3fac0 D _ZTVN11PmicObjects3MBG4IMBGE
0x8ff3fae4 D _ZTVN11PmicObjects3MBG5PMIC416MBG_PMIC4_ConfigE
0x8ff3fb08 D _ZTVN11PmicObjects3MBG5PMIC49MBG_PMIC4E
0x8ff3fb2c D _ZTVN11PmicObjects3MPP4IMPPE
0x8ff3fb8c D _ZTVN11PmicObjects3MPP5PMIC416MPP_PMIC4_ConfigE
0x8ff3fbec D _ZTVN11PmicObjects3MPP5PMIC49MPP_PMIC4E
0x8ff3fc4c D _ZTVN11PmicObjects3NCP4INCPE
0x8ff3fc64 D _ZTVN11PmicObjects3NCP5PMIC416NCP_PMIC4_ConfigE
0x8ff3fc7c D _ZTVN11PmicObjects3NCP5PMIC49NCP_PMIC4E
0x8ff3fc94 D _ZTVN11PmicObjects3OVP4IOVPE
0x8ff3fcb8 D _ZTVN11PmicObjects3OVP5PMIC416OVP_PMIC4_ConfigE
0x8ff3fcdc D _ZTVN11PmicObjects3OVP5PMIC49OVP_PMIC4E
0x8ff3fd00 D _ZTVN11PmicObjects3PWR11IVregV2CtrlE
0x8ff3fd18 D _ZTVN11PmicObjects3PWR12IVregV2LevelE
0x8ff3fd30 D _ZTVN11PmicObjects3PWR12PwrModeAlgV1E
0x8ff3fd48 D _ZTVN11PmicObjects3PWR12PwrModeAlgV2E
0x8ff3fd60 D _ZTVN11PmicObjects3PWR12PwrModeAlgV3E
0x8ff3fd78 D _ZTVN11PmicObjects3PWR12PwrModeAlgV4E
0x8ff3fd90 D _ZTVN11PmicObjects3PWR12PwrModeAlgV5E
0x8ff3fda8 D _ZTVN11PmicObjects3PWR13IPwrPinCtrledE
0x8ff3fdbc D _ZTVN11PmicObjects3PWR13IPwrVoltLevelE
0x8ff3fdd0 D _ZTVN11PmicObjects3PWR14IVregV2PinCtrlE
0x8ff3fde4 D _ZTVN11PmicObjects3PWR15VregV2CtrlAlgV1E
0x8ff3fdfc D _ZTVN11PmicObjects3PWR15VregV2CtrlAlgV2E
0x8ff3fe14 D _ZTVN11PmicObjects3PWR15VregV2CtrlAlgV3E
0x8ff3fe2c D _ZTVN11PmicObjects3PWR15VregV2CtrlAlgV4E
0x8ff3fe44 D _ZTVN11PmicObjects3PWR16VregV2LevelAlgV1E
0x8ff3fe68 D _ZTVN11PmicObjects3PWR16VregV2LevelAlgV2E
0x8ff3fe98 D _ZTVN11PmicObjects3PWR16VregV2LevelAlgV3E
0x8ff3feb8 D _ZTVN11PmicObjects3PWR16VregV2LevelAlgV4E
0x8ff3fed8 D _ZTVN11PmicObjects3PWR17PwrPinCtrledAlgV1E
0x8ff3feec D _ZTVN11PmicObjects3PWR17PwrPinCtrledAlgV2E
0x8ff3ff00 D _ZTVN11PmicObjects3PWR17PwrPinCtrledAlgV3E
0x8ff3ff14 D _ZTVN11PmicObjects3PWR17PwrPinCtrledAlgV4E
0x8ff3ff28 D _ZTVN11PmicObjects3PWR17PwrPinCtrledAlgV5E
0x8ff3ff3c D _ZTVN11PmicObjects3PWR17PwrVoltLevelAlgV1E
0x8ff3ff50 D _ZTVN11PmicObjects3PWR17PwrVoltLevelAlgV2E
0x8ff3ff64 D _ZTVN11PmicObjects3PWR17PwrVoltLevelAlgV3E
0x8ff3ff78 D _ZTVN11PmicObjects3PWR17PwrVoltLevelAlgV4E
0x8ff3ff8c D _ZTVN11PmicObjects3PWR18IPwrActivePullDownE
0x8ff3ffa0 D _ZTVN11PmicObjects3PWR18VregV2PinCtrlAlgV1E
0x8ff3ffb4 D _ZTVN11PmicObjects3PWR18VregV2PinCtrlAlgV2E
0x8ff3ffc8 D _ZTVN11PmicObjects3PWR18VregV2PinCtrlAlgV3E
0x8ff3ffdc D _ZTVN11PmicObjects3PWR18VregV2PinCtrlAlgV4E
0x8ff3fff0 D _ZTVN11PmicObjects3PWR22PwrActivePullDownAlgV1E
0x8ff40004 D _ZTVN11PmicObjects3PWR22PwrActivePullDownAlgV2E
0x8ff40018 D _ZTVN11PmicObjects3PWR22PwrActivePullDownAlgV3E
0x8ff4002c D _ZTVN11PmicObjects3PWR22PwrActivePullDownAlgV4E
0x8ff40040 D _ZTVN11PmicObjects3PWR22PwrActivePullDownAlgV5E
0x8ff40054 D _ZTVN11PmicObjects3PWR8IPwrModeE
0x8ff4006c D _ZTVN11PmicObjects3RTC4IRTCE
0x8ff400a8 D _ZTVN11PmicObjects3RTC5PMIC414MEGA_RTC_PMIC4E
0x8ff400e4 D _ZTVN11PmicObjects3RTC5PMIC421MEGA_RTC_PMIC4_ConfigE
0x8ff40120 D _ZTVN11PmicObjects3VIB4IVIBE
0x8ff4013c D _ZTVN11PmicObjects3VIB5PMIC416VIB_PMIC4_ConfigE
0x8ff40158 D _ZTVN11PmicObjects3VIB5PMIC49VIB_PMIC4E
0x8ff40174 D _ZTVN11PmicObjects4COMM11CommManagerE
0x8ff40184 D _ZTVN11PmicObjects4COMM5ICommE
0x8ff401b4 D _ZTVN11PmicObjects4COMM8CommInfoE
0x8ff401c4 D _ZTVN11PmicObjects4COMM8SSBI_2_0E
0x8ff401f4 D _ZTVN11PmicObjects4GPIO5IGPIOE
0x8ff40238 D _ZTVN11PmicObjects4GPIO5PMIC410GPIO_PMIC4E
0x8ff4027c D _ZTVN11PmicObjects4GPIO5PMIC417GPIO_PMIC4_ConfigE
0x8ff402c0 D _ZTVN11PmicObjects4MISC5IMISCE
0x8ff402d4 D _ZTVN11PmicObjects4MISC5PMIC410MISC_PMIC4E
0x8ff402e8 D _ZTVN11PmicObjects4MISC5PMIC417MISC_PMIC4_ConfigE
0x8ff402fc D _ZTVN11PmicObjects4SMBC5ISMBCE
0x8ff40380 D _ZTVN11PmicObjects4SMBC5PMIC410SMBC_PMIC4E
0x8ff40404 D _ZTVN11PmicObjects4SMBC5PMIC417SMBC_PMIC4_ConfigE
0x8ff40488 D _ZTVN11PmicObjects4SMPS17IPwrBuckClkSourceE
0x8ff4049c D _ZTVN11PmicObjects4SMPS17IVregV2BuckConfigE
0x8ff404b0 D _ZTVN11PmicObjects4SMPS20IPwrBuckInductorILimE
0x8ff404c8 D _ZTVN11PmicObjects4SMPS20IPwrBuckSwitchDriverE
0x8ff404e0 D _ZTVN11PmicObjects4SMPS21IPwrBuckSwitchingFreqE
0x8ff404f8 D _ZTVN11PmicObjects4SMPS21PwrBuckClkSourceAlgV1E
0x8ff4050c D _ZTVN11PmicObjects4SMPS21PwrBuckClkSourceAlgV2E
0x8ff40520 D _ZTVN11PmicObjects4SMPS21VregV2BuckConfigAlgV1E
0x8ff40534 D _ZTVN11PmicObjects4SMPS21VregV2BuckConfigAlgV2E
0x8ff40548 D _ZTVN11PmicObjects4SMPS23IPwrBuckPowerSwitchSizeE
0x8ff40560 D _ZTVN11PmicObjects4SMPS24IVregV2AdvanceLegacyModeE
0x8ff40574 D _ZTVN11PmicObjects4SMPS24PwrBuckInductorILimAlgV1E
0x8ff4058c D _ZTVN11PmicObjects4SMPS24PwrBuckInductorILimAlgV2E
0x8ff405a4 D _ZTVN11PmicObjects4SMPS24PwrBuckSwitchDriverAlgV1E
0x8ff405bc D _ZTVN11PmicObjects4SMPS24PwrBuckSwitchDriverAlgV2E
0x8ff405d4 D _ZTVN11PmicObjects4SMPS25PwrBuckSwitchingFreqAlgV1E
0x8ff405ec D _ZTVN11PmicObjects4SMPS25PwrBuckSwitchingFreqAlgV2E
0x8ff40604 D _ZTVN11PmicObjects4SMPS26IVregV2CoreRailAdvanceModeE
0x8ff40618 D _ZTVN11PmicObjects4SMPS27PwrBuckPowerSwitchSizeAlgV1E
0x8ff40630 D _ZTVN11PmicObjects4SMPS27PwrBuckPowerSwitchSizeAlgV2E
0x8ff40648 D _ZTVN11PmicObjects4SMPS28VregV2AdvanceLegacyModeAlgV1E
0x8ff4065c D _ZTVN11PmicObjects4SMPS30VregV2CoreRailAdvanceModeAlgV1E
0x8ff40670 D _ZTVN11PmicObjects4SMPS5PMIC416FTS_PMIC4_ConfigE
0x8ff40680 D _ZTVN11PmicObjects4SMPS5PMIC416HFS_PMIC4_ConfigE
0x8ff40690 D _ZTVN11PmicObjects4SMPS5PMIC49FTS_PMIC4E
0x8ff406a0 D _ZTVN11PmicObjects4SMPS5PMIC49HFS_PMIC4E
0x8ff406b0 D _ZTVN11PmicObjects4SMPS7HfsBaseE
0x8ff406c0 D _ZTVN11PmicObjects4SMPS8BuckBaseE
0x8ff406d0 D _ZTVN11PmicObjects4TALM5ITALME
0x8ff406ec D _ZTVN11PmicObjects4TALM5PMIC410TALM_PMIC4E
0x8ff40708 D _ZTVN11PmicObjects4TALM5PMIC417TALM_PMIC4_ConfigE
0x8ff40724 D _ZTVN11PmicObjects4UVLO5IUVLOE
0x8ff4073c D _ZTVN11PmicObjects4UVLO5PMIC410UVLO_PMIC4E
0x8ff40754 D _ZTVN11PmicObjects4UVLO5PMIC417UVLO_PMIC4_ConfigE
0x8ff4076c D _ZTVN11PmicObjects5FLASH5PMIC411Flash_PMIC4E
0x8ff407b0 D _ZTVN11PmicObjects5FLASH5PMIC418Flash_PMIC4_ConfigE
0x8ff407f4 D _ZTVN11PmicObjects5FLASH6IFLASHE
0x8ff40838 D _ZTVN11PmicObjects5PWRON5PMIC411PWRON_PMIC4E
0x8ff40894 D _ZTVN11PmicObjects5PWRON5PMIC418PWRON_PMIC4_ConfigE
0x8ff408f0 D _ZTVN11PmicObjects5PWRON6IPWRONE
0x8ff40948 D _ZTVN11PmicObjects5VBATT5PMIC411Vbatt_PMIC4E
0x8ff40988 D _ZTVN11PmicObjects5VBATT5PMIC418Vbatt_PMIC4_ConfigE
0x8ff409c8 D _ZTVN11PmicObjects5VBATT6IVBATTE
0x8ff40a08 D _ZTVN11PmicObjects6KEYPAD5PMIC412Keypad_PMIC4E
0x8ff40a38 D _ZTVN11PmicObjects6KEYPAD5PMIC419Keypad_PMIC4_ConfigE
0x8ff40a68 D _ZTVN11PmicObjects6KEYPAD7IKEYPADE
0x8ff40a98 D _ZTVN11PmicObjects6MEGAXO5PMIC413MEGA_XO_PMIC4E
0x8ff40ac0 D _ZTVN11PmicObjects6MEGAXO5PMIC420MEGA_XO_PMIC4_ConfigE
0x8ff40ae8 D _ZTVN11PmicObjects6MEGAXO7IMEGAXOE
0x8ff40b10 D _ZTVN11PmicObjects6Target12AppsProcBoot21AppsProcBootProcessorE
0x8ff40b48 D _ZTVN11PmicObjects6Target12AppsProcBoot27AppsProcBootResourceManagerE
0x8ff40b6c D _ZTVN11PmicObjects6Target6Common18TargetAccessHelperE
0x8ff40b98 D _ZTVN11PmicObjects6Target6Common22TargetAccessHelperBaseE
0x8ff40bc4 D _ZTVN11PmicObjects6Target6Common24TargetInformationAppBootE
0x8ff40bdc D _ZTVN11PmicObjects6Target6Common25AppsBootSettingsRegistersE
0x8ff40bf8 D _ZTVN11PmicObjects7ARB_ADC5PMIC413ARB_ADC_PMIC4E
0x8ff40c40 D _ZTVN11PmicObjects7ARB_ADC5PMIC420ARB_ADC_PMIC4_ConfigE
0x8ff40c88 D _ZTVN11PmicObjects7ARB_ADC8IARB_ADCE
0x8ff40cd0 D _ZTVN11PmicObjects7COINCHG5PMIC413CoinChg_PMIC4E
0x8ff40ce8 D _ZTVN11PmicObjects7COINCHG5PMIC420CoinChg_PMIC4_ConfigE
0x8ff40d00 D _ZTVN11PmicObjects7COINCHG8ICOINCHGE
0x8ff43108 D extfs_ops
0x8ff434fc D fs_vnode_nodev_ops
0x8ff4409c D load_appsbl_pre_procs
0x8ff440e8 D load_appsbl_post_procs
0x8ff44108 D sbl3_pre_dload_procs
0x8ff4411c D sbl3_config_table
0x8ff44200 D gDALProcessDriverModList
0x8ff44204 D boot_shared_imem_cookie_ptr
0x8ff44238 D bl_err_if
0x8ff44240 D oem_hw_init_procs
0x8ff44260 D boot_ddr_info_set
0x8ff44264 D test_single_fuse_blow
0x8ff44265 D test_multiple_fuse_blow
0x8ff44266 D test_read_fuse
0x8ff44267 D qfprom_test_run_always
0x8ff44268 D qfprom_test_array_length
0x8ff4426c D qfprom_service_api_status
0x8ff44270 D qfprom_fastcall_status
0x8ff44274 D qfprom_fuse_addr
0x8ff44278 D addr_type
0x8ff4427c D qfprom_fuse_data
0x8ff44284 D qfprom_test_fuse_array
0x8ff44308 D appsbl_partition_id
0x8ff44318 D ssd_partition_id
0x8ff4432c D hdlc_curr_state
0x8ff44338 D mem_dump_buf
0x8ff4433c D fs_cookie_start_addr
0x8ff44340 D fs_cookie_db_size
0x8ff443d4 D _fs_catch
0x8ff443d8 D fs_in_boot_mode
0x8ff44420 D smem_init_info
0x8ff44438 D DALPROP_StructPtrs
0x8ff44448 D DALPROP_PropBin
0x8ff44b38 D DALPROP_PropsInfo
0x8ff44b6c D gDALModDriverInfoList
0x8ff44b74 D reset_status_register_dump
0x8ff44b78 D pmic_power_on_status
0x8ff44b7c D wdog_status
0x8ff44b88 D reset_count
0x8ff44b90 D auth_image_header
0x8ff44c0c D boot_rollback_failsafe_list
0x8ff44c10 D boot_rollback_non_failsafe_list
0x8ff44c3c D _ZN11PmicObjects15TargetProcessor7m_pSelfE
0x8ff44c40 D _ZN11PmicObjects6Target6Common21TargetSpecificSetting9HWVersionE
0x8ff44c44 D _ZN11PmicObjects6Target6Common21TargetSpecificSetting7m_pSelfE
0x8ff44c48 D _ZN11PmicObjects4COMM11CommManager7m_pSelfE
0x8ff44c50 D hotplug_crit_sect
0x8ff44c54 D hotplug_total_devices
0x8ff44c58 D hotplug_total_physical_devices
0x8ff44c5c D hotplug_total_partitions
0x8ff44c88 D SourceConfig
0x8ff45260 D spinlock_ptr
0x8ff452d0 D _ZN11PmicObjects6Target6Common25AppsBootSettingsRegisters40BMSCommonConfig_V1_PM8921A_VariantCommonE
0x8ff452d1 D _ZN11PmicObjects6Target6Common25AppsBootSettingsRegisters40BTMCommonConfig_V1_PM8921A_VariantCommonE
0x8ff452d2 D _ZN11PmicObjects6Target6Common25AppsBootSettingsRegisters40CLKCommonConfig_V2_PM8921A_VariantCommonE
0x8ff452d3 D _ZN11PmicObjects6Target6Common25AppsBootSettingsRegisters44COINCHGCommonConfig_V1_PM8921A_VariantCommonE
0x8ff452d4 D _ZN11PmicObjects6Target6Common25AppsBootSettingsRegisters41GPIOCommonConfig_V1_PM8921A_VariantCommonE
0x8ff452d5 D _ZN11PmicObjects6Target6Common25AppsBootSettingsRegisters43KEYPADCommonConfig_V1_PM8921A_VariantCommonE
0x8ff452d6 D _ZN11PmicObjects6Target6Common25AppsBootSettingsRegisters40LPGCommonConfig_V1_PM8921A_VariantCommonE
0x8ff452d7 D _ZN11PmicObjects6Target6Common25AppsBootSettingsRegisters40MBGCommonConfig_V1_PM8921A_VariantCommonE
0x8ff452d8 D _ZN11PmicObjects6Target6Common25AppsBootSettingsRegisters43MEGAXOCommonConfig_V1_PM8921A_VariantCommonE
0x8ff452d9 D _ZN11PmicObjects6Target6Common25AppsBootSettingsRegisters40NCPCommonConfig_V1_PM8921A_VariantCommonE
0x8ff452da D _ZN11PmicObjects6Target6Common25AppsBootSettingsRegisters40OVPCommonConfig_V1_PM8921A_VariantCommonE
0x8ff452db D _ZN11PmicObjects6Target6Common25AppsBootSettingsRegisters42PWRONCommonConfig_V1_PM8921A_VariantCommonE
0x8ff452dc D _ZN11PmicObjects6Target6Common25AppsBootSettingsRegisters40RTCCommonConfig_V1_PM8921A_VariantCommonE
0x8ff452dd D _ZN11PmicObjects6Target6Common25AppsBootSettingsRegisters41SMBCCommonConfig_V1_PM8921A_VariantCommonE
0x8ff452de D _ZN11PmicObjects6Target6Common25AppsBootSettingsRegisters41TALMCommonConfig_V1_PM8921A_VariantCommonE
0x8ff452df D _ZN11PmicObjects6Target6Common25AppsBootSettingsRegisters41UVLOCommonConfig_V1_PM8921A_VariantCommonE
0x8ff452e0 D _ZN11PmicObjects6Target6Common25AppsBootSettingsRegisters42VBATTCommonConfig_V1_PM8921A_VariantCommonE
0x8ff452e1 D _ZN11PmicObjects6Target6Common25AppsBootSettingsRegisters40VIBCommonConfig_V1_PM8921A_VariantCommonE
0x8ff452e2 D _ZN11PmicObjects6Target6Common25AppsBootSettingsRegisters16MISCCommonConfigE
0x8ff452e3 D _ZN11PmicObjects6Target6Common25AppsBootSettingsRegisters40CLKCommonConfig_V1_PM8821B_VariantCommonE
0x8ff452e4 D _ZN11PmicObjects6Target6Common25AppsBootSettingsRegisters46INTERRUPTCommonConfig_V2_PM8821B_VariantCommonE
0x8ff452e5 D _ZN11PmicObjects6Target6Common25AppsBootSettingsRegisters40MBGCommonConfig_V1_PM8821B_VariantCommonE
0x8ff452e6 D _ZN11PmicObjects6Target6Common25AppsBootSettingsRegisters42PWRONCommonConfig_V1_PM8821B_VariantCommonE
0x8ff452e7 D _ZN11PmicObjects6Target6Common25AppsBootSettingsRegisters41TALMCommonConfig_V1_PM8821B_VariantCommonE
0x8ff452e8 D _ZN11PmicObjects6Target6Common25AppsBootSettingsRegisters41COINCHGRegConfig_V1_PM8921A_VariantCommonE
0x8ff452ea D _ZN11PmicObjects6Target6Common25AppsBootSettingsRegisters38TALMRegConfig_V1_PM8921A_VariantCommonE
0x8ff452ec D _ZN11PmicObjects6Target6Common25AppsBootSettingsRegisters37VIBRegConfig_V1_PM8921A_VariantCommonE
0x8ff452ee D _ZN11PmicObjects6Target6Common25AppsBootSettingsRegisters38TALMRegConfig_V1_PM8821B_VariantCommonE
0x8ff452f0 D _ZN11PmicObjects6Target6Common25AppsBootSettingsRegisters13MISCRegConfigE
0x8ff452f2 D _ZN11PmicObjects6Target6Common25AppsBootSettingsRegisters46INTERRUPTCommonConfig_V1_PM8921A_VariantCommonE
0x8ff452f6 D _ZN11PmicObjects6Target6Common25AppsBootSettingsRegisters37MBGRegConfig_V1_PM8921A_VariantCommonE
0x8ff452fa D _ZN11PmicObjects6Target6Common25AppsBootSettingsRegisters37OVPRegConfig_V1_PM8921A_VariantCommonE
0x8ff452fe D _ZN11PmicObjects6Target6Common25AppsBootSettingsRegisters38UVLORegConfig_V1_PM8921A_VariantCommonE
0x8ff45302 D _ZN11PmicObjects6Target6Common25AppsBootSettingsRegisters39VBATTRegConfig_V1_PM8921A_VariantCommonE
0x8ff45306 D _ZN11PmicObjects6Target6Common25AppsBootSettingsRegisters37CLKRegConfig_V1_PM8821B_VariantCommonE
0x8ff4530a D _ZN11PmicObjects6Target6Common25AppsBootSettingsRegisters43INTERRUPTRegConfig_V2_PM8821B_VariantCommonE
0x8ff4530e D _ZN11PmicObjects6Target6Common25AppsBootSettingsRegisters37LDORegConfig_V2_PM8821B_VariantCommonE
0x8ff45312 D _ZN11PmicObjects6Target6Common25AppsBootSettingsRegisters37MBGRegConfig_V1_PM8821B_VariantCommonE
0x8ff45316 D _ZN11PmicObjects6Target6Common25AppsBootSettingsRegisters40MPPCommonConfig_V1_PM8921A_VariantCommonE
0x8ff4531c D _ZN11PmicObjects6Target6Common25AppsBootSettingsRegisters37NCPRegConfig_V1_PM8921A_VariantCommonE
0x8ff45324 D _ZN11PmicObjects6Target6Common25AppsBootSettingsRegisters44ARB_ADCCommonConfig_V1_PM8921A_VariantCommonE
0x8ff4532c D _ZN11PmicObjects6Target6Common25AppsBootSettingsRegisters39VSCommonConfig_V2_PM8921A_VariantCommonE
0x8ff45334 D _ZN11PmicObjects6Target6Common25AppsBootSettingsRegisters42BTMSpecificConfig_V1_PM8921A_VariantCommonE
0x8ff4533c D _ZN11PmicObjects6Target6Common25AppsBootSettingsRegisters46COINCHGSpecificConfig_V1_PM8921A_VariantCommonE
0x8ff45344 D _ZN11PmicObjects6Target6Common25AppsBootSettingsRegisters42VIBSpecificConfig_V1_PM8921A_VariantCommonE
0x8ff4534c D _ZN11PmicObjects6Target6Common25AppsBootSettingsRegisters44FT_SMPSCommonConfig_V1_PM8921A_VariantCommonE
0x8ff4535a D _ZN11PmicObjects6Target6Common25AppsBootSettingsRegisters44HF_SMPSCommonConfig_V1_PM8921A_VariantCommonE
0x8ff4536c D _ZN11PmicObjects6Target6Common25AppsBootSettingsRegisters41HSEDCommonConfig_V1_PM8921A_VariantCommonE
0x8ff45384 D _ZN11PmicObjects6Target6Common25AppsBootSettingsRegisters40LDOCommonConfig_V2_PM8921A_VariantCommonE
0x8ff45390 D _ZN11PmicObjects6Target6Common25AppsBootSettingsRegisters46ARB_ADCSpecificConfig_V1_PM8921A_VariantCommonE
0x8ff453b4 D _ZN11PmicObjects6Target6Common25AppsBootSettingsRegisters46FT_SMPSSpecificConfig_V1_PM8921A_VariantCommonE
0x8ff453d4 D _ZN11PmicObjects6Target6Common25AppsBootSettingsRegisters46HF_SMPSSpecificConfig_V1_PM8921A_VariantCommonE
0x8ff45434 D _ZN11PmicObjects6Target6Common25AppsBootSettingsRegisters48INTERRUPTSpecificConfig_V1_PM8921A_VariantCommonE
0x8ff4544c D _ZN11PmicObjects6Target6Common25AppsBootSettingsRegisters45KEYPADSpecificConfig_V1_PM8921A_VariantCommonE
0x8ff45458 D _ZN11PmicObjects6Target6Common25AppsBootSettingsRegisters42LDOSpecificConfig_V2_PM8921A_VariantCommonE
0x8ff45628 D _ZN11PmicObjects6Target6Common25AppsBootSettingsRegisters42LPGSpecificConfig_V1_PM8921A_VariantCommonE
0x8ff45648 D _ZN11PmicObjects6Target6Common25AppsBootSettingsRegisters45MEGAXOSpecificConfig_V1_PM8921A_VariantCommonE
0x8ff4565c D _ZN11PmicObjects6Target6Common25AppsBootSettingsRegisters42MPPSpecificConfig_V1_PM8921A_VariantCommonE
0x8ff45674 D _ZN11PmicObjects6Target6Common25AppsBootSettingsRegisters42OVPSpecificConfig_V1_PM8921A_VariantCommonE
0x8ff456d4 D _ZN11PmicObjects6Target6Common25AppsBootSettingsRegisters44PWRONSpecificConfig_V1_PM8921A_VariantCommonE
0x8ff456ec D _ZN11PmicObjects6Target6Common25AppsBootSettingsRegisters43SMBCSpecificConfig_V1_PM8921A_VariantCommonE
0x8ff457ac D _ZN11PmicObjects6Target6Common25AppsBootSettingsRegisters43UVLOSpecificConfig_V1_PM8921A_VariantCommonE
0x8ff457bc D _ZN11PmicObjects6Target6Common25AppsBootSettingsRegisters44VBATTSpecificConfig_V1_PM8921A_VariantCommonE
0x8ff457cc D _ZN11PmicObjects6Target6Common25AppsBootSettingsRegisters41VSSpecificConfig_V2_PM8921A_VariantCommonE
0x8ff45814 D _ZN11PmicObjects6Target6Common25AppsBootSettingsRegisters49HSDKYPDAPPSpecificConfig_V1_PM8921A_VariantCommonE
0x8ff45838 D _ZN11PmicObjects6Target6Common25AppsBootSettingsRegisters46HSEDAPPSpecificConfig_V1_PM8921A_VariantCommonE
0x8ff45860 D _ZN11PmicObjects6Target6Common25AppsBootSettingsRegisters48PWRKEYAPPSpecificConfig_V1_PM8921A_VariantCommonE
0x8ff4586c D _ZN11PmicObjects6Target6Common25AppsBootSettingsRegisters41ARB_ADCRegConfig_V1_PM8921A_VariantCommonE
0x8ff4589c D _ZN11PmicObjects6Target6Common25AppsBootSettingsRegisters37BMSRegConfig_V1_PM8921A_VariantCommonE
0x8ff458de D _ZN11PmicObjects6Target6Common25AppsBootSettingsRegisters37BTMRegConfig_V1_PM8921A_VariantCommonE
0x8ff458f4 D _ZN11PmicObjects6Target6Common25AppsBootSettingsRegisters37CLKRegConfig_V2_PM8921A_VariantCommonE
0x8ff4590a D _ZN11PmicObjects6Target6Common25AppsBootSettingsRegisters41FT_SMPSRegConfig_V1_PM8921A_VariantCommonE
0x8ff4591e D _ZN11PmicObjects6Target6Common25AppsBootSettingsRegisters38GPIORegConfig_V1_PM8921A_VariantCommonE
0x8ff45976 D _ZN11PmicObjects6Target6Common25AppsBootSettingsRegisters41HF_SMPSRegConfig_V1_PM8921A_VariantCommonE
0x8ff459b2 D _ZN11PmicObjects6Target6Common25AppsBootSettingsRegisters38HSEDRegConfig_V1_PM8921A_VariantCommonE
0x8ff459c4 D _ZN11PmicObjects6Target6Common25AppsBootSettingsRegisters43INTERRUPTRegConfig_V1_PM8921A_VariantCommonE
0x8ff45a00 D _ZN11PmicObjects6Target6Common25AppsBootSettingsRegisters40KEYPADRegConfig_V1_PM8921A_VariantCommonE
0x8ff45a0a D _ZN11PmicObjects6Target6Common25AppsBootSettingsRegisters37LDORegConfig_V2_PM8921A_VariantCommonE
0x8ff45a7e D _ZN11PmicObjects6Target6Common25AppsBootSettingsRegisters37LPGRegConfig_V1_PM8921A_VariantCommonE
0x8ff45a9a D _ZN11PmicObjects6Target6Common25AppsBootSettingsRegisters40MEGAXORegConfig_V1_PM8921A_VariantCommonE
0x8ff45acc D _ZN11PmicObjects6Target6Common25AppsBootSettingsRegisters37MPPRegConfig_V1_PM8921A_VariantCommonE
0x8ff45ae4 D _ZN11PmicObjects6Target6Common25AppsBootSettingsRegisters39PWRONRegConfig_V1_PM8921A_VariantCommonE
0x8ff45af0 D _ZN11PmicObjects6Target6Common25AppsBootSettingsRegisters37RTCRegConfig_V1_PM8921A_VariantCommonE
0x8ff45b10 D _ZN11PmicObjects6Target6Common25AppsBootSettingsRegisters38SMBCRegConfig_V1_PM8921A_VariantCommonE
0x8ff45b44 D _ZN11PmicObjects6Target6Common25AppsBootSettingsRegisters36VSRegConfig_V2_PM8921A_VariantCommonE
0x8ff45b8c D _ZN11PmicObjects6Target6Common25AppsBootSettingsRegisters44FT_SMPSCommonConfig_V1_PM8821B_VariantCommonE
0x8ff45b9a D _ZN11PmicObjects6Target6Common25AppsBootSettingsRegisters40LDOCommonConfig_V2_PM8821B_VariantCommonE
0x8ff45ba8 D _ZN11PmicObjects6Target6Common25AppsBootSettingsRegisters46FT_SMPSSpecificConfig_V1_PM8821B_VariantCommonE
0x8ff45bc8 D _ZN11PmicObjects6Target6Common25AppsBootSettingsRegisters48INTERRUPTSpecificConfig_V2_PM8821B_VariantCommonE
0x8ff45bdc D _ZN11PmicObjects6Target6Common25AppsBootSettingsRegisters42LDOSpecificConfig_V2_PM8821B_VariantCommonE
0x8ff45bec D _ZN11PmicObjects6Target6Common25AppsBootSettingsRegisters44PWRONSpecificConfig_V1_PM8821B_VariantCommonE
0x8ff45c04 D _ZN11PmicObjects6Target6Common25AppsBootSettingsRegisters41FT_SMPSRegConfig_V1_PM8821B_VariantCommonE
0x8ff45c18 D _ZN11PmicObjects6Target6Common25AppsBootSettingsRegisters39PWRONRegConfig_V1_PM8821B_VariantCommonE
0x8ff45c24 D _ZN11PmicObjects6Target6Common22TargetAccessHelperBase7m_pSelfE
0x8ff45c28 D pm_chip_revision_id
0x8ff45c2c D MagicNumber
0x8ff45c34 D hfat_crit_sect
0x8ff45c38 D fat_gmutex
0x8ff45c3c D hfat_lfn_enabled
0x8ff45c40 D blockdev_driver_list
0x8ff45c50 D sdcc_mini_boot_device_info
0x8ff45c64 D hHWIOSync
0x8ff45de4 D gpAdcClientCtxt
0x8ff4616c D image_partition_id
0x8ff46284 D ceml_init_done
0x8ff462d4 D blockdev_devnull_driver
0x8ff462e4 D blockdev_sd_driver
0x8ff4635c D fs_convert
0x8ff46364 D sdcc_hal_max_data_length_in_bytes
0x8ff46368 D sdcc_post_sigs
0x8ff4636c D sdcc_timer_status
0x8ff46388 D hwio_init_done
0x8ff4638c D msmhwiomap
0x8ff47784 D RPM_BASE_PTR
0x8ff47788 D RPM_MSG_RAM_XPU_BASE_PTR
0x8ff4778c D RPM_SS_MSG_RAM_START_ADDRESS_BASE_PTR
0x8ff47790 D MPM_BASE_PTR
0x8ff47794 D PA1_SSBI2_CFG_BASE_PTR
0x8ff47798 D PA1_XPU_BASE_PTR
0x8ff4779c D PA1_SSBI2_CMD_BASE_PTR
0x8ff477a0 D PA2_SSBI2_CFG_BASE_PTR
0x8ff477a4 D PA2_SSBI2_CMD_BASE_PTR
0x8ff477a8 D SEC_CTRL_BASE_PTR
0x8ff477ac D TLMM_BASE_PTR
0x8ff477b0 D CLK_CTL_BASE_PTR
0x8ff477b4 D EBI1_CH0_BASE_PTR
0x8ff477b8 D EBI1_CH1_BASE_PTR
0x8ff477bc D SYS_IMEM_BASE_PTR
0x8ff477c0 D SFPB_WRAPPER_XPU_BASE_PTR
0x8ff477c4 D SFPB_WRAPPER_BASE_PTR
0x8ff477c8 D SFPB_WRAPPER_MUTEX_BASE_PTR
0x8ff477cc D SFAB_BASE_PTR
0x8ff477d0 D AFAB_BASE_PTR
0x8ff477d4 D DAY_CFG_BASE_PTR
0x8ff477d8 D SFPB_WRAPPER_1x2_BASE_PTR
0x8ff477dc D SFPB_WRAPPER_2x1_BASE_PTR
0x8ff477e0 D QDSS_DAPROM_BASE_PTR
0x8ff477e4 D QDSS_ETB_BASE_PTR
0x8ff477e8 D QDSS_CTI1_BASE_PTR
0x8ff477ec D QDSS_TPIU_BASE_PTR
0x8ff477f0 D QDSS_TFUNNEL_BASE_PTR
0x8ff477f4 D QDSS_ITM_BASE_PTR
0x8ff477f8 D QDSS_STM_BASE_PTR
0x8ff477fc D QDSS_DAPM2VMT_BASE_PTR
0x8ff47800 D NAV_BASE_PTR
0x8ff47804 D GSS_A5_CSR_BASE_PTR
0x8ff47808 D GSS_A5_SPM_BASE_PTR
0x8ff4780c D GSS_A5_QGIC2_BASE_PTR
0x8ff47810 D GSS_A5_TIMERS_BASE_PTR
0x8ff47814 D GSS_A5_SSBI_BASE_PTR
0x8ff47818 D APCS_QGIC2_BASE_PTR
0x8ff4781c D APCS_ACC_BASE_PTR
0x8ff47820 D APCS_SAW2_BASE_PTR
0x8ff47824 D APCS_TMR_BASE_PTR
0x8ff47828 D APCS_GLB_BASE_PTR
0x8ff4782c D APCS_GCC_BASE_PTR
0x8ff47830 D APCS_L2_GDHS_BASE_PTR
0x8ff47834 D APCS_L2_MPU_BASE_PTR
0x8ff47838 D APCS_HSEL_BASE_PTR
0x8ff4783c D CPU0_APCS_ACC_BASE_PTR
0x8ff47840 D CPU0_APCS_SAW2_BASE_PTR
0x8ff47844 D CPU0_APCS_TMR_BASE_PTR
0x8ff47848 D CPU1_APCS_ACC_BASE_PTR
0x8ff4784c D CPU1_APCS_SAW2_BASE_PTR
0x8ff47850 D CPU1_APCS_TMR_BASE_PTR
0x8ff47854 D CPU2_APCS_ACC_BASE_PTR
0x8ff47858 D CPU2_APCS_SAW2_BASE_PTR
0x8ff4785c D CPU2_APCS_TMR_BASE_PTR
0x8ff47860 D CPU3_APCS_ACC_BASE_PTR
0x8ff47864 D CPU3_APCS_SAW2_BASE_PTR
0x8ff47868 D CPU3_APCS_TMR_BASE_PTR
0x8ff4786c D EXT_APCS_GLB_BASE_PTR
0x8ff47870 D EXT_APCS_GCC_BASE_PTR
0x8ff47874 D EXT_APCS_L2_GDHS_BASE_PTR
0x8ff47878 D EXT_APCS_L2_MPU_BASE_PTR
0x8ff4787c D MMSS_CC_BASE_PTR
0x8ff47880 D OXILI_BASE_PTR
0x8ff47884 D MFC_BASE_PTR
0x8ff47888 D VFE_BASE_PTR
0x8ff4788c D GEMINI_BASE_PTR
0x8ff47890 D MIPI_DSI_1_BASE_PTR
0x8ff47894 D MIPI_DSI_2_BASE_PTR
0x8ff47898 D CSID_BASE_PTR
0x8ff4789c D HDMI_TX_BASE_PTR
0x8ff478a0 D IMEM_MMSS_BASE_PTR
0x8ff478a4 D ROTATOR_BASE_PTR
0x8ff478a8 D TV_ENC_BASE_PTR
0x8ff478ac D JPEGD_BASE_PTR
0x8ff478b0 D MDP_BASE_PTR
0x8ff478b4 D FABRIC_MMSS_BASE_PTR
0x8ff478b8 D VPE_BASE_PTR
0x8ff478bc D MMSS_APU_BASE_PTR
0x8ff478c0 D MMSS_SFPB_CFG_BASE_PTR
0x8ff478c4 D VCAP_BASE_PTR
0x8ff478c8 D SMMU_VCAP_BASE_PTR
0x8ff478cc D SMMU_JPEGD_BASE_PTR
0x8ff478d0 D SMMU_VPE_BASE_PTR
0x8ff478d4 D SMMU_MDP4_0_BASE_PTR
0x8ff478d8 D SMMU_MDP4_1_BASE_PTR
0x8ff478dc D SMMU_ROTATOR_BASE_PTR
0x8ff478e0 D SMMU_JPEG_BASE_PTR
0x8ff478e4 D SMMU_VFE_BASE_PTR
0x8ff478e8 D SMMU_SS1080P_0_BASE_PTR
0x8ff478ec D SMMU_SS1080P_1_BASE_PTR
0x8ff478f0 D SMMU_GFX3D_BASE_PTR
0x8ff478f4 D SMMU_GFX3D1_BASE_PTR
0x8ff478f8 D SMMU_SFPB_CFG_DUMMY_BASE_PTR
0x8ff478fc D SIC_BASE_PTR
0x8ff47900 D SIC_APU_BASE_PTR
0x8ff47904 D INTCTL0_BASE_PTR
0x8ff47908 D SIC_NON_SECURE_BASE_PTR
0x8ff4790c D INTCTL1_BASE_PTR
0x8ff47910 D INTCTL2_BASE_PTR
0x8ff47914 D INTCTL3_BASE_PTR
0x8ff47918 D INTCTL4_BASE_PTR
0x8ff4791c D INTCTL5_BASE_PTR
0x8ff47920 D INTCTL6_BASE_PTR
0x8ff47924 D INTCTL7_BASE_PTR
0x8ff47928 D SDC2_BASE_PTR
0x8ff4792c D SDC2_DML_BASE_PTR
0x8ff47930 D SDC2_BAM_BASE_PTR
0x8ff47934 D SDC3_BASE_PTR
0x8ff47938 D SDC3_DML_BASE_PTR
0x8ff4793c D SDC3_BAM_BASE_PTR
0x8ff47940 D SDC4_BASE_PTR
0x8ff47944 D SDC4_DML_BASE_PTR
0x8ff47948 D SDC4_BAM_BASE_PTR
0x8ff4794c D BAM_DMA_BASE_PTR
0x8ff47950 D BAM_DMA_BAM_BASE_PTR
0x8ff47954 D BAM_DMA_BAM_XPU_BASE_PTR
0x8ff47958 D SDC1_BASE_PTR
0x8ff4795c D SDC1_DML_BASE_PTR
0x8ff47960 D SDC1_BAM_BASE_PTR
0x8ff47964 D USB1_HS_BASE_PTR
0x8ff47968 D USB1_HS_BAM_BASE_PTR
0x8ff4796c D USB2_HSIC_BASE_PTR
0x8ff47970 D USB3_HS_BASE_PTR
0x8ff47974 D USB3_HS_BAM_BASE_PTR
0x8ff47978 D USB4_HS_BASE_PTR
0x8ff4797c D USB4_HS_BAM_BASE_PTR
0x8ff47980 D SPS_GSBI1_BASE_PTR
0x8ff47984 D SPS_UART1_DM_BASE_PTR
0x8ff47988 D SPS_QUP1_BASE_PTR
0x8ff4798c D SPS_GSBI2_BASE_PTR
0x8ff47990 D SPS_UART2_DM_BASE_PTR
0x8ff47994 D SPS_QUP2_BASE_PTR
0x8ff47998 D CE2_CRYPTO4_BASE_PTR
0x8ff4799c D GSBI3_BASE_PTR
0x8ff479a0 D GSBI3_UART_DM_BASE_PTR
0x8ff479a4 D QUP3_BASE_PTR
0x8ff479a8 D GSBI4_BASE_PTR
0x8ff479ac D GSBI4_UART_DM_BASE_PTR
0x8ff479b0 D QUP4_BASE_PTR
0x8ff479b4 D GSBI5_BASE_PTR
0x8ff479b8 D GSBI5_UART_DM_BASE_PTR
0x8ff479bc D QUP5_BASE_PTR
0x8ff479c0 D GSBI6_BASE_PTR
0x8ff479c4 D GSBI6_UART_DM_BASE_PTR
0x8ff479c8 D QUP6_BASE_PTR
0x8ff479cc D GSBI7_BASE_PTR
0x8ff479d0 D GSBI7_UART_DM_BASE_PTR
0x8ff479d4 D QUP7_BASE_PTR
0x8ff479d8 D LPASS_XPU_BASE_PTR
0x8ff479dc D KPSS_XPU_BASE_PTR
0x8ff479e0 D GSS_XPU_BASE_PTR
0x8ff479e4 D CFPB2_XPU_CFG_BASE_PTR
0x8ff479e8 D CSYSFPB2_BASE_PTR
0x8ff479ec D CSYSFPB_SPL_BASE_PTR
0x8ff479f0 D USB1_FS_BASE_PTR
0x8ff479f4 D TSIF_BASE_PTR
0x8ff479f8 D TSPP_BASE_PTR
0x8ff479fc D TSIF_BAM_BASE_PTR
0x8ff47a00 D ADM3_0_BASE_PTR
0x8ff47a04 D CE1_CRYPTO4_BASE_PTR
0x8ff47a08 D TSSC_BASE_PTR
0x8ff47a0c D TSSC_SSBI_BASE_PTR
0x8ff47a10 D MSM_PDM_BASE_PTR
0x8ff47a14 D CSYSFPB_MST_BASE_PTR
0x8ff47a18 D CFPB1_XPU_CFG_BASE_PTR
0x8ff47a1c D CSYSFPB1_BASE_PTR
0x8ff47a20 D PMEM_BASE_PTR
0x8ff47a24 D MSM_TCSR_BASE_PTR
0x8ff47a28 D PRNG_BASE_PTR
0x8ff47a2c D CE3_CRYPTO4_BASE_PTR
0x8ff47a30 D DIM_BD0_REG_BASE_PTR
0x8ff47a34 D DIM_D00_REG_BASE_PTR
0x8ff47a38 D DIM_D01_REG_BASE_PTR
0x8ff47a3c D DIM_D02_REG_BASE_PTR
0x8ff47a40 D DIM_D03_REG_BASE_PTR
0x8ff47a44 D DIM_BC0_REG_BASE_PTR
0x8ff47a48 D DIM_C00_REG_BASE_PTR
0x8ff47a4c D DIM_C01_REG_BASE_PTR
0x8ff47a50 D DIM_BD1_REG_BASE_PTR
0x8ff47a54 D DIM_D10_REG_BASE_PTR
0x8ff47a58 D DIM_D11_REG_BASE_PTR
0x8ff47a5c D DIM_D12_REG_BASE_PTR
0x8ff47a60 D DIM_D13_REG_BASE_PTR
0x8ff47a64 D DIM_BC1_REG_BASE_PTR
0x8ff47a68 D DIM_C10_REG_BASE_PTR
0x8ff47a6c D DIM_C11_REG_BASE_PTR
0x8ff47a70 D CFPB0_XPU_CFG_BASE_PTR
0x8ff47a74 D CSYSFPB0_BASE_PTR
0x8ff47a78 D LPASS_CSR_BASE_PTR
0x8ff47a7c D LPASS_M2VMT_BASE_PTR
0x8ff47a80 D LPASS_M2VMT_Q6SS_BASE_PTR
0x8ff47a84 D LPASS_AHBTM_BASE_PTR
0x8ff47a88 D LPASS_SLIMBUS_BASE_PTR
0x8ff47a8c D LPASS_BAM_LITE_BASE_PTR
0x8ff47a90 D LPA_IF_BASE_PTR
0x8ff47a94 D MIDI_BASE_PTR
0x8ff47a98 D LPASS_QDSP6SS_PUB_BASE_PTR
0x8ff47a9c D LPASS_QDSP6SS_CSR_BASE_PTR
0x8ff47aa0 D LPASS_QDSP6SS_L2VIC_BASE_PTR
0x8ff47aa4 D LPASS_QDSP6SS_SAW_BASE_PTR
0x8ff47aa8 D PPSS_BASE_PTR
0x8ff47aac D SPDM_SECURE_BASE_PTR
0x8ff47ab0 D SPDM_BASE_PTR
0x8ff47ab4 D RIVA_BASE_PTR
0x8ff47ab8 D SATA_XPU_CFG_BASE_PTR
0x8ff47abc D SATA_BASE_PTR
0x8ff47ac0 D SATA_PHY_BASE_PTR
0x8ff47ac4 D CE3_XPU_CFG_BASE_PTR
0x8ff47ac8 D PCIE20_BASE_PTR
0x8ff47acc D PCIE20_ELBI_BASE_PTR
0x8ff47ad0 D PCIE20_PARF_BASE_PTR
0x8ff47ca8 D amPartMap
0x8ff484e0 D busywait_cpu_freq_mhz
0x8ff484e4 D busywait_pause_timer_freq_mhz
0x8ff484e8 D gnTotalGPIO
0x8ff4850e D hdlc_usb_config_obex
0x8ff48608 D sw_config
0x8ff48618 D sw_device
0x8ff486b4 D sw_strings
0x8ff48710 D dci_core_base_address
0x8ff48718 D cecl_little_endian_mode
0x8ff4871c D ce_version_id
0x8ff489c4 D fs_convert_utf8
0x8ff489fc D HAL_clk_nHWIOBaseTop
0x8ff48a00 D HAL_clk_nHWIOBaseLPA
0x8ff48a04 D HAL_clk_nHWIOBaseMMSS
0x8ff48a08 D HAL_clk_nHWIOBaseRiva
0x8ff48a48 D HAL_clk_Platform
0x8ff48a5c D pgtState
0x8ff48a61 D cur_xfer_status
0x8ff48a94 D ms_sw_data_ifc
0x8ff48aac D _sbi_env
0x8ff48ab4 D pVbattForIRQs
0x8ff48ab8 D _ZN11PmicObjects10interrupts5PMIC419Interrupts_V2_PMIC46mpSelfE
0x8ff48abc D _ZN11PmicObjects10interrupts5PMIC416Interrupts_PMIC46mpSelfE
0x8ff48ac0 D CeMLCntxHandleBuff
0x8ff49e70 D pll_mode_addr
0x8ff49eb8 D pll_test_ctl_addr
0x8ff49f00 D pll_config_addr
0x8ff49f48 D boot_err_log_ptr
0x8ff49f58 D fs_root_dev
0x8ff49f60 D fs_root_mpoint
0x8ff49f64 D fs_root_vnode
0x8ff4a0e0 D fs_hfat_ops
0x8ff4a140 D bl_shared_data
0x8ff5be6c D nameidata_buffer
0x8ff5bfb0 D nameidata_buf2
0x8ff5d3c8 D hash_image_info
0x8ff5d3f8 D hotplug_devices
0x8ff5d498 D hotplug_physical_devices
0x8ff5d5f4 D hotplug_partitions
0x8ff5e768 D f_filesystem
0x8ff771a8 D f_volume_map
0x8ff771c4 D g_multi
0x8ff775d8 D hotplug_counter
0x8ff7794c D hfat_path_buffers
0x8ff7815c D hfat_f_name_buffers
0x8ff7896c D hfat_f_lfnint_buffers
0x8ff79918 D sdcc_client_handle_list
0x8ff79a98 D sdcc_reg_base
0x8ff79aa8 D sdcc_reg_phys
0x8ff79c4c D CeMLIovecTypeArray
0x8ff79cac D CeMLHashCipherAlgoCntxTypeBuff
0x8ff7b13c D fs_mpoints
0x8ff7cc90 D hfat_iterators
