
RPM.elf:     file format elf32-littlearm


Disassembly of section RPM_ROM:

00020000 <__main>:
   20000:	ea000006 	b	20020 <__main+0x20>
   20004:	ea00001e 	b	20084 <__main+0x84>
   20008:	ea00002c 	b	200c0 <__main+0xc0>
   2000c:	ea000039 	b	200f8 <__main+0xf8>
   20010:	ea000046 	b	20130 <__main+0x130>
   20014:	ea000053 	b	20168 <__main+0x168>
   20018:	ea000057 	b	2017c <__main+0x17c>
   2001c:	ea000058 	b	20184 <__main+0x184>
   20020:	e321f0d3 	msr	CPSR_c, #211	; 0xd3
   20024:	e59f0160 	ldr	r0, [pc, #352]	; 2018c <__main+0x18c>
   20028:	e59f1160 	ldr	r1, [pc, #352]	; 20190 <__main+0x190>
   2002c:	e59f2160 	ldr	r2, [pc, #352]	; 20194 <__main+0x194>
   20030:	e8a00004 	stmia	r0!, {r2}
   20034:	e1500001 	cmp	r0, r1
   20038:	3afffffc 	bcc	20030 <__main+0x30>
   2003c:	e59f014c 	ldr	r0, [pc, #332]	; 20190 <__main+0x190>
   20040:	e1a0d000 	mov	sp, r0
   20044:	e321f0db 	msr	CPSR_c, #219	; 0xdb
   20048:	e1a0d000 	mov	sp, r0
   2004c:	e321f0d7 	msr	CPSR_c, #215	; 0xd7
   20050:	e1a0d000 	mov	sp, r0
   20054:	e321f0d1 	msr	CPSR_c, #209	; 0xd1
   20058:	e1a0d000 	mov	sp, r0
   2005c:	e3a01080 	mov	r1, #128	; 0x80
   20060:	e0400001 	sub	r0, r0, r1
   20064:	e321f0d2 	msr	CPSR_c, #210	; 0xd2
   20068:	e1a0d000 	mov	sp, r0
   2006c:	e3a01080 	mov	r1, #128	; 0x80
   20070:	e0400001 	sub	r0, r0, r1
   20074:	e321f0df 	msr	CPSR_c, #223	; 0xdf
   20078:	e1a0d000 	mov	sp, r0
   2007c:	e321f0d3 	msr	CPSR_c, #211	; 0xd3
   20080:	ea005dc1 	b	3778c <rpm_log_init+0xac>
   20084:	e51d4004 	ldr	r4, [sp, #-4]
   20088:	e92d4011 	push	{r0, r4, lr}
   2008c:	e14f0000 	mrs	r0, SPSR
   20090:	e52d0004 	push	{r0}		; (str r0, [sp, #-4]!)
   20094:	e24e0004 	sub	r0, lr, #4
   20098:	e321f0df 	msr	CPSR_c, #223	; 0xdf
   2009c:	e52de004 	push	{lr}		; (str lr, [sp, #-4]!)
   200a0:	e59f40f0 	ldr	r4, [pc, #240]	; 20198 <__main+0x198>
   200a4:	e59fe0f0 	ldr	lr, [pc, #240]	; 2019c <__main+0x19c>
   200a8:	e12fff14 	bx	r4
   200ac:	e49de004 	pop	{lr}		; (ldr lr, [sp], #4)
   200b0:	e321f0d1 	msr	CPSR_c, #209	; 0xd1
   200b4:	e49d0004 	pop	{r0}		; (ldr r0, [sp], #4)
   200b8:	e16ff000 	msr	SPSR_fsxc, r0
   200bc:	e8fd8011 	ldm	sp!, {r0, r4, pc}^
   200c0:	e51d4004 	ldr	r4, [sp, #-4]
   200c4:	e14f0000 	mrs	r0, SPSR
   200c8:	e52d0004 	push	{r0}		; (str r0, [sp, #-4]!)
   200cc:	e24e0004 	sub	r0, lr, #4
   200d0:	e321f0df 	msr	CPSR_c, #223	; 0xdf
   200d4:	e52de004 	push	{lr}		; (str lr, [sp, #-4]!)
   200d8:	e59f40c0 	ldr	r4, [pc, #192]	; 201a0 <__main+0x1a0>
   200dc:	e59fe0c0 	ldr	lr, [pc, #192]	; 201a4 <__main+0x1a4>
   200e0:	e12fff14 	bx	r4
   200e4:	e49de004 	pop	{lr}		; (ldr lr, [sp], #4)
   200e8:	e321f0d3 	msr	CPSR_c, #211	; 0xd3
   200ec:	e49d0004 	pop	{r0}		; (ldr r0, [sp], #4)
   200f0:	e16ff000 	msr	SPSR_fsxc, r0
   200f4:	e8fd8011 	ldm	sp!, {r0, r4, pc}^
   200f8:	e51d4004 	ldr	r4, [sp, #-4]
   200fc:	e14f0000 	mrs	r0, SPSR
   20100:	e52d0004 	push	{r0}		; (str r0, [sp, #-4]!)
   20104:	e24e0004 	sub	r0, lr, #4
   20108:	e321f0df 	msr	CPSR_c, #223	; 0xdf
   2010c:	e52de004 	push	{lr}		; (str lr, [sp, #-4]!)
   20110:	e59f4090 	ldr	r4, [pc, #144]	; 201a8 <__main+0x1a8>
   20114:	e59fe090 	ldr	lr, [pc, #144]	; 201ac <__main+0x1ac>
   20118:	e12fff14 	bx	r4
   2011c:	e49de004 	pop	{lr}		; (ldr lr, [sp], #4)
   20120:	e321f0d7 	msr	CPSR_c, #215	; 0xd7
   20124:	e49d0004 	pop	{r0}		; (ldr r0, [sp], #4)
   20128:	e16ff000 	msr	SPSR_fsxc, r0
   2012c:	e8fd8011 	ldm	sp!, {r0, r4, pc}^
   20130:	e51d4004 	ldr	r4, [sp, #-4]
   20134:	e14f0000 	mrs	r0, SPSR
   20138:	e52d0004 	push	{r0}		; (str r0, [sp, #-4]!)
   2013c:	e24e0008 	sub	r0, lr, #8
   20140:	e321f0df 	msr	CPSR_c, #223	; 0xdf
   20144:	e52de004 	push	{lr}		; (str lr, [sp, #-4]!)
   20148:	e59f4060 	ldr	r4, [pc, #96]	; 201b0 <__main+0x1b0>
   2014c:	e59fe060 	ldr	lr, [pc, #96]	; 201b4 <__main+0x1b4>
   20150:	e12fff14 	bx	r4
   20154:	e49de004 	pop	{lr}		; (ldr lr, [sp], #4)
   20158:	e321f0d7 	msr	CPSR_c, #215	; 0xd7
   2015c:	e49d0004 	pop	{r0}		; (ldr r0, [sp], #4)
   20160:	e16ff000 	msr	SPSR_fsxc, r0
   20164:	e8fd8011 	ldm	sp!, {r0, r4, pc}^
   20168:	e51d4004 	ldr	r4, [sp, #-4]
   2016c:	e92d5fff 	push	{r0, r1, r2, r3, r4, r5, r6, r7, r8, r9, sl, fp, ip, lr}
   20170:	e59f4040 	ldr	r4, [pc, #64]	; 201b8 <__main+0x1b8>
   20174:	e59fe040 	ldr	lr, [pc, #64]	; 201bc <__main+0x1bc>
   20178:	e12fff14 	bx	r4
   2017c:	e51d4004 	ldr	r4, [sp, #-4]
   20180:	ea000290 	b	20bc8 <IRQ_Handler>
   20184:	e51d4004 	ldr	r4, [sp, #-4]
   20188:	ea0002d0 	b	20cd0 <FIQ_Handler>
   2018c:	00047950 	.word	0x00047950
   20190:	00047e50 	.word	0x00047e50
   20194:	cccccccc 	.word	0xcccccccc
   20198:	00037879 	.word	0x00037879
   2019c:	000200ac 	.word	0x000200ac
   201a0:	00037861 	.word	0x00037861
   201a4:	000200e4 	.word	0x000200e4
   201a8:	000377b1 	.word	0x000377b1
   201ac:	0002011c 	.word	0x0002011c
   201b0:	000373b9 	.word	0x000373b9
   201b4:	00020154 	.word	0x00020154
   201b8:	00037825 	.word	0x00037825
   201bc:	00020178 	.word	0x00020178

000201c0 <get_timetick>:
   201c0:	2301      	movs	r3, #1
   201c2:	055b      	lsls	r3, r3, #21
   201c4:	6a5a      	ldr	r2, [r3, #36]	; 0x24
   201c6:	6a59      	ldr	r1, [r3, #36]	; 0x24
   201c8:	4291      	cmp	r1, r2
   201ca:	d001      	beq.n	201d0 <get_timetick+0x10>
   201cc:	000a      	movs	r2, r1
   201ce:	e7fa      	b.n	201c6 <get_timetick+0x6>
   201d0:	6001      	str	r1, [r0, #0]
   201d2:	4770      	bx	lr
   201d4:	4778      	bx	pc
   201d6:	46c0      	nop			; (mov r8, r8)

000201d8 <__aeabi_llsl>:
   201d8:	e2523020 	subs	r3, r2, #32
   201dc:	5a000004 	bpl	201f4 <__aeabi_llsl+0x1c>
   201e0:	e2623020 	rsb	r3, r2, #32
   201e4:	e1a01211 	lsl	r1, r1, r2
   201e8:	e1811330 	orr	r1, r1, r0, lsr r3
   201ec:	e1a00210 	lsl	r0, r0, r2
   201f0:	e12fff1e 	bx	lr
   201f4:	e1a01310 	lsl	r1, r0, r3
   201f8:	e3a00000 	mov	r0, #0
   201fc:	e12fff1e 	bx	lr
   20200:	4778      	bx	pc
   20202:	46c0      	nop			; (mov r8, r8)

00020204 <__aeabi_lmul>:
   20204:	e92d4000 	stmfd	sp!, {lr}
   20208:	e1a0e000 	mov	lr, r0
   2020c:	e08c0e92 	umull	r0, ip, r2, lr
   20210:	e021c192 	mla	r1, r2, r1, ip
   20214:	e0211e93 	mla	r1, r3, lr, r1
   20218:	e8bd4000 	ldmfd	sp!, {lr}
   2021c:	e12fff1e 	bx	lr
   20220:	4778      	bx	pc
   20222:	46c0      	nop			; (mov r8, r8)

00020224 <__aeabi_uldivmod>:
   20224:	e92d4070 	push	{r4, r5, r6, lr}
   20228:	e1a04003 	mov	r4, r3
   2022c:	e1a05002 	mov	r5, r2
   20230:	e1a03001 	mov	r3, r1
   20234:	e1a02000 	mov	r2, r0

00020238 <_ll_udiv_donemoving>:
   20238:	e3540000 	cmp	r4, #0
   2023c:	11a0c004 	movne	ip, r4
   20240:	01a0c005 	moveq	ip, r5
   20244:	13a0e03f 	movne	lr, #63	; 0x3f
   20248:	03a0e01f 	moveq	lr, #31
   2024c:	e1b0082c 	lsrs	r0, ip, #16
   20250:	01a0c80c 	lsleq	ip, ip, #16
   20254:	024ee010 	subeq	lr, lr, #16
   20258:	e1b00c2c 	lsrs	r0, ip, #24
   2025c:	01a0c40c 	lsleq	ip, ip, #8
   20260:	024ee008 	subeq	lr, lr, #8
   20264:	e1b00e2c 	lsrs	r0, ip, #28
   20268:	01a0c20c 	lsleq	ip, ip, #4
   2026c:	024ee004 	subeq	lr, lr, #4
   20270:	e1b00f2c 	lsrs	r0, ip, #30
   20274:	01a0c10c 	lsleq	ip, ip, #2
   20278:	024ee002 	subeq	lr, lr, #2
   2027c:	e1b00fac 	lsrs	r0, ip, #31
   20280:	024ee001 	subeq	lr, lr, #1
   20284:	01b0c08c 	lslseq	ip, ip, #1
   20288:	0a000083 	beq	2049c <_ll_udiv_donemoving+0x264>
   2028c:	e24e0020 	sub	r0, lr, #32
   20290:	e3500004 	cmp	r0, #4
   20294:	e1a0c08c 	lsl	ip, ip, #1
   20298:	d18cc035 	orrle	ip, ip, r5, lsr r0
   2029c:	e1a0ce2c 	lsr	ip, ip, #28
   202a0:	e28f1f83 	add	r1, pc, #524	; 0x20c
   202a4:	e791c10c 	ldr	ip, [r1, ip, lsl #2]
   202a8:	e35e001f 	cmp	lr, #31
   202ac:	824ee020 	subhi	lr, lr, #32
   202b0:	e26e6020 	rsb	r6, lr, #32
   202b4:	8a000043 	bhi	203c8 <_ll_udiv_donemoving+0x190>
   202b8:	e081059c 	umull	r0, r1, ip, r5
   202bc:	e1a01611 	lsl	r1, r1, r6
   202c0:	e1811e30 	orr	r1, r1, r0, lsr lr
   202c4:	e1a00610 	lsl	r0, r0, r6
   202c8:	e2700000 	rsbs	r0, r0, #0
   202cc:	e2e11000 	rsc	r1, r1, #0
   202d0:	e081019c 	umull	r0, r1, ip, r1
   202d4:	e08cc001 	add	ip, ip, r1
   202d8:	e081059c 	umull	r0, r1, ip, r5
   202dc:	e1a01611 	lsl	r1, r1, r6
   202e0:	e1811e30 	orr	r1, r1, r0, lsr lr
   202e4:	e1a00610 	lsl	r0, r0, r6
   202e8:	e2700000 	rsbs	r0, r0, #0
   202ec:	e2e11000 	rsc	r1, r1, #0
   202f0:	e3530000 	cmp	r3, #0
   202f4:	e081019c 	umull	r0, r1, ip, r1
   202f8:	e08cc001 	add	ip, ip, r1
   202fc:	0a000007 	beq	20320 <_ll_udiv_donemoving+0xe8>
   20300:	e081059c 	umull	r0, r1, ip, r5
   20304:	e1a01611 	lsl	r1, r1, r6
   20308:	e1811e30 	orr	r1, r1, r0, lsr lr
   2030c:	e1a00610 	lsl	r0, r0, r6
   20310:	e2700000 	rsbs	r0, r0, #0
   20314:	e2e11000 	rsc	r1, r1, #0
   20318:	e081019c 	umull	r0, r1, ip, r1
   2031c:	e08cc001 	add	ip, ip, r1
   20320:	e080129c 	umull	r1, r0, ip, r2
   20324:	e3a01000 	mov	r1, #0
   20328:	e0a1039c 	umlal	r0, r1, ip, r3
   2032c:	e1a00e30 	lsr	r0, r0, lr
   20330:	e1800611 	orr	r0, r0, r1, lsl r6
   20334:	e0846590 	umull	r6, r4, r0, r5
   20338:	e1a01e31 	lsr	r1, r1, lr
   2033c:	e0244591 	mla	r4, r1, r5, r4
   20340:	e0522006 	subs	r2, r2, r6
   20344:	e0c33004 	sbc	r3, r3, r4
   20348:	e3530001 	cmp	r3, #1
   2034c:	31520005 	cmpcc	r2, r5
   20350:	38bd4070 	popcc	{r4, r5, r6, lr}
   20354:	312fff1e 	bxcc	lr
   20358:	e086429c 	umull	r4, r6, ip, r2
   2035c:	e3a04000 	mov	r4, #0
   20360:	e0a4639c 	umlal	r6, r4, ip, r3
   20364:	e3a03000 	mov	r3, #0
   20368:	e26ec020 	rsb	ip, lr, #32
   2036c:	e1a06e36 	lsr	r6, r6, lr
   20370:	e1866c14 	orr	r6, r6, r4, lsl ip
   20374:	e1a04e34 	lsr	r4, r4, lr
   20378:	e08ce596 	umull	lr, ip, r6, r5
   2037c:	e0900006 	adds	r0, r0, r6
   20380:	e0a11004 	adc	r1, r1, r4
   20384:	e042200e 	sub	r2, r2, lr
   20388:	e1520005 	cmp	r2, r5
   2038c:	38bd4070 	popcc	{r4, r5, r6, lr}
   20390:	312fff1e 	bxcc	lr
   20394:	e2900001 	adds	r0, r0, #1
   20398:	e0422005 	sub	r2, r2, r5
   2039c:	e2a11000 	adc	r1, r1, #0
   203a0:	e052c005 	subs	ip, r2, r5
   203a4:	21a0200c 	movcs	r2, ip
   203a8:	e2b00000 	adcs	r0, r0, #0
   203ac:	e2a11000 	adc	r1, r1, #0
   203b0:	e052c005 	subs	ip, r2, r5
   203b4:	e8bd4070 	pop	{r4, r5, r6, lr}
   203b8:	21a0200c 	movcs	r2, ip
   203bc:	e2b00000 	adcs	r0, r0, #0
   203c0:	e2a11000 	adc	r1, r1, #0
   203c4:	e12fff1e 	bx	lr
   203c8:	e080159c 	umull	r1, r0, ip, r5
   203cc:	e3a01000 	mov	r1, #0
   203d0:	e0a1049c 	umlal	r0, r1, ip, r4
   203d4:	e1a01611 	lsl	r1, r1, r6
   203d8:	e1811e30 	orr	r1, r1, r0, lsr lr
   203dc:	e1a00610 	lsl	r0, r0, r6
   203e0:	e2700000 	rsbs	r0, r0, #0
   203e4:	e2e11000 	rsc	r1, r1, #0
   203e8:	e081019c 	umull	r0, r1, ip, r1
   203ec:	e08cc001 	add	ip, ip, r1
   203f0:	e080159c 	umull	r1, r0, ip, r5
   203f4:	e3a01000 	mov	r1, #0
   203f8:	e0a1049c 	umlal	r0, r1, ip, r4
   203fc:	e1a01611 	lsl	r1, r1, r6
   20400:	e1811e30 	orr	r1, r1, r0, lsr lr
   20404:	e1a00610 	lsl	r0, r0, r6
   20408:	e2700000 	rsbs	r0, r0, #0
   2040c:	e2e11000 	rsc	r1, r1, #0
   20410:	e081019c 	umull	r0, r1, ip, r1
   20414:	e08cc001 	add	ip, ip, r1
   20418:	e24cc001 	sub	ip, ip, #1
   2041c:	e080129c 	umull	r1, r0, ip, r2
   20420:	e3a01000 	mov	r1, #0
   20424:	e0a1039c 	umlal	r0, r1, ip, r3
   20428:	e1a00e31 	lsr	r0, r1, lr
   2042c:	e0816590 	umull	r6, r1, r0, r5
   20430:	e0522006 	subs	r2, r2, r6
   20434:	e0211490 	mla	r1, r0, r4, r1
   20438:	e0c33001 	sbc	r3, r3, r1
   2043c:	e1530004 	cmp	r3, r4
   20440:	01520005 	cmpeq	r2, r5
   20444:	38bd4070 	popcc	{r4, r5, r6, lr}
   20448:	33a01000 	movcc	r1, #0
   2044c:	312fff1e 	bxcc	lr
   20450:	e081629c 	umull	r6, r1, ip, r2
   20454:	e3a06000 	mov	r6, #0
   20458:	e0a6139c 	umlal	r1, r6, ip, r3
   2045c:	e3a01000 	mov	r1, #0
   20460:	e1a06e36 	lsr	r6, r6, lr
   20464:	e08ce596 	umull	lr, ip, r6, r5
   20468:	e0800006 	add	r0, r0, r6
   2046c:	e052200e 	subs	r2, r2, lr
   20470:	e02ec496 	mla	lr, r6, r4, ip
   20474:	e0c3300e 	sbc	r3, r3, lr
   20478:	e1530004 	cmp	r3, r4
   2047c:	01520005 	cmpeq	r2, r5
   20480:	38bd4070 	popcc	{r4, r5, r6, lr}
   20484:	312fff1e 	bxcc	lr
   20488:	e0522005 	subs	r2, r2, r5
   2048c:	e0c33004 	sbc	r3, r3, r4
   20490:	e8bd4070 	pop	{r4, r5, r6, lr}
   20494:	e2800001 	add	r0, r0, #1
   20498:	e12fff1e 	bx	lr
   2049c:	e92d000c 	push	{r2, r3}
   204a0:	e3a01000 	mov	r1, #0
   204a4:	e3a00000 	mov	r0, #0
   204a8:	eb000180 	bl	20ab0 <__aeabi_ldiv0>
   204ac:	e8bd407c 	pop	{r2, r3, r4, r5, r6, lr}
   204b0:	e12fff1e 	bx	lr
   204b4:	f0f0f0f0 	.word	0xf0f0f0f0
   204b8:	e38e38e3 	.word	0xe38e38e3
   204bc:	d79435e5 	.word	0xd79435e5
   204c0:	cccccccc 	.word	0xcccccccc
   204c4:	c30c30c3 	.word	0xc30c30c3
   204c8:	ba2e8ba2 	.word	0xba2e8ba2
   204cc:	b21642c8 	.word	0xb21642c8
   204d0:	aaaaaaaa 	.word	0xaaaaaaaa
   204d4:	a3d70a3d 	.word	0xa3d70a3d
   204d8:	9d89d89d 	.word	0x9d89d89d
   204dc:	97b425ed 	.word	0x97b425ed
   204e0:	92492492 	.word	0x92492492
   204e4:	8d3dcb08 	.word	0x8d3dcb08
   204e8:	88888888 	.word	0x88888888
   204ec:	84210842 	.word	0x84210842
   204f0:	80000000 	.word	0x80000000

000204f4 <strlen>:
   204f4:	b430      	push	{r4, r5}
   204f6:	1c44      	adds	r4, r0, #1
   204f8:	e003      	b.n	20502 <strlen+0xe>
   204fa:	7801      	ldrb	r1, [r0, #0]
   204fc:	1c40      	adds	r0, r0, #1
   204fe:	2900      	cmp	r1, #0
   20500:	d00e      	beq.n	20520 <strlen+0x2c>
   20502:	0781      	lsls	r1, r0, #30
   20504:	d1f9      	bne.n	204fa <strlen+0x6>
   20506:	4b0b      	ldr	r3, [pc, #44]	; (20534 <strlen+0x40>)
   20508:	01dd      	lsls	r5, r3, #7
   2050a:	c804      	ldmia	r0!, {r2}
   2050c:	1ad1      	subs	r1, r2, r3
   2050e:	4391      	bics	r1, r2
   20510:	4029      	ands	r1, r5
   20512:	d0fa      	beq.n	2050a <strlen+0x16>
   20514:	1b00      	subs	r0, r0, r4
   20516:	060a      	lsls	r2, r1, #24
   20518:	d004      	beq.n	20524 <strlen+0x30>
   2051a:	1ec0      	subs	r0, r0, #3
   2051c:	bc30      	pop	{r4, r5}
   2051e:	4770      	bx	lr
   20520:	1b00      	subs	r0, r0, r4
   20522:	e7fb      	b.n	2051c <strlen+0x28>
   20524:	040a      	lsls	r2, r1, #16
   20526:	d001      	beq.n	2052c <strlen+0x38>
   20528:	1e80      	subs	r0, r0, #2
   2052a:	e7f7      	b.n	2051c <strlen+0x28>
   2052c:	0209      	lsls	r1, r1, #8
   2052e:	d0f5      	beq.n	2051c <strlen+0x28>
   20530:	1e40      	subs	r0, r0, #1
   20532:	e7f3      	b.n	2051c <strlen+0x28>
   20534:	01010101 	.word	0x01010101

00020538 <strncmp>:
   20538:	0003      	movs	r3, r0
   2053a:	430b      	orrs	r3, r1
   2053c:	b4f0      	push	{r4, r5, r6, r7}
   2053e:	079b      	lsls	r3, r3, #30
   20540:	d129      	bne.n	20596 <strncmp+0x5e>
   20542:	4e22      	ldr	r6, [pc, #136]	; (205cc <strncmp+0x94>)
   20544:	01f7      	lsls	r7, r6, #7
   20546:	2a04      	cmp	r2, #4
   20548:	d325      	bcc.n	20596 <strncmp+0x5e>
   2054a:	c808      	ldmia	r0!, {r3}
   2054c:	c910      	ldmia	r1!, {r4}
   2054e:	1f12      	subs	r2, r2, #4
   20550:	1b9d      	subs	r5, r3, r6
   20552:	439d      	bics	r5, r3
   20554:	403d      	ands	r5, r7
   20556:	d101      	bne.n	2055c <strncmp+0x24>
   20558:	42a3      	cmp	r3, r4
   2055a:	d0f4      	beq.n	20546 <strncmp+0xe>
   2055c:	0618      	lsls	r0, r3, #24
   2055e:	0621      	lsls	r1, r4, #24
   20560:	0e00      	lsrs	r0, r0, #24
   20562:	0e09      	lsrs	r1, r1, #24
   20564:	1a40      	subs	r0, r0, r1
   20566:	0629      	lsls	r1, r5, #24
   20568:	4301      	orrs	r1, r0
   2056a:	d112      	bne.n	20592 <strncmp+0x5a>
   2056c:	0418      	lsls	r0, r3, #16
   2056e:	0421      	lsls	r1, r4, #16
   20570:	0c00      	lsrs	r0, r0, #16
   20572:	0c09      	lsrs	r1, r1, #16
   20574:	1a40      	subs	r0, r0, r1
   20576:	0429      	lsls	r1, r5, #16
   20578:	4301      	orrs	r1, r0
   2057a:	d10a      	bne.n	20592 <strncmp+0x5a>
   2057c:	0219      	lsls	r1, r3, #8
   2057e:	0220      	lsls	r0, r4, #8
   20580:	0a09      	lsrs	r1, r1, #8
   20582:	0a00      	lsrs	r0, r0, #8
   20584:	1a08      	subs	r0, r1, r0
   20586:	0229      	lsls	r1, r5, #8
   20588:	4301      	orrs	r1, r0
   2058a:	d102      	bne.n	20592 <strncmp+0x5a>
   2058c:	0e18      	lsrs	r0, r3, #24
   2058e:	0e21      	lsrs	r1, r4, #24
   20590:	1a40      	subs	r0, r0, r1
   20592:	bcf0      	pop	{r4, r5, r6, r7}
   20594:	4770      	bx	lr
   20596:	2a00      	cmp	r2, #0
   20598:	d101      	bne.n	2059e <strncmp+0x66>
   2059a:	2000      	movs	r0, #0
   2059c:	e7f9      	b.n	20592 <strncmp+0x5a>
   2059e:	7803      	ldrb	r3, [r0, #0]
   205a0:	780c      	ldrb	r4, [r1, #0]
   205a2:	1c40      	adds	r0, r0, #1
   205a4:	1c49      	adds	r1, r1, #1
   205a6:	2b00      	cmp	r3, #0
   205a8:	d00d      	beq.n	205c6 <strncmp+0x8e>
   205aa:	42a3      	cmp	r3, r4
   205ac:	d10b      	bne.n	205c6 <strncmp+0x8e>
   205ae:	1e52      	subs	r2, r2, #1
   205b0:	d009      	beq.n	205c6 <strncmp+0x8e>
   205b2:	7803      	ldrb	r3, [r0, #0]
   205b4:	780c      	ldrb	r4, [r1, #0]
   205b6:	1c40      	adds	r0, r0, #1
   205b8:	1c49      	adds	r1, r1, #1
   205ba:	2b00      	cmp	r3, #0
   205bc:	d003      	beq.n	205c6 <strncmp+0x8e>
   205be:	42a3      	cmp	r3, r4
   205c0:	d101      	bne.n	205c6 <strncmp+0x8e>
   205c2:	1e52      	subs	r2, r2, #1
   205c4:	d1eb      	bne.n	2059e <strncmp+0x66>
   205c6:	1b18      	subs	r0, r3, r4
   205c8:	e7e3      	b.n	20592 <strncmp+0x5a>
   205ca:	0000      	.short	0x0000
   205cc:	01010101 	.word	0x01010101
   205d0:	4778      	bx	pc
   205d2:	46c0      	nop			; (mov r8, r8)

000205d4 <__aeabi_memcpy>:
   205d4:	e3520003 	cmp	r2, #3
   205d8:	9a00002a 	bls	20688 <_memcpy_lastbytes>
   205dc:	e210c003 	ands	ip, r0, #3
   205e0:	0a000008 	beq	20608 <__aeabi_memcpy+0x34>
   205e4:	e4d13001 	ldrb	r3, [r1], #1
   205e8:	e35c0002 	cmp	ip, #2
   205ec:	e082200c 	add	r2, r2, ip
   205f0:	94d1c001 	ldrbls	ip, [r1], #1
   205f4:	e4c03001 	strb	r3, [r0], #1
   205f8:	34d13001 	ldrbcc	r3, [r1], #1
   205fc:	94c0c001 	strbls	ip, [r0], #1
   20600:	e2422004 	sub	r2, r2, #4
   20604:	34c03001 	strbcc	r3, [r0], #1
   20608:	e2113003 	ands	r3, r1, #3
   2060c:	0a000026 	beq	206ac <__aeabi_memcpy4>
   20610:	e2522004 	subs	r2, r2, #4
   20614:	3a00001b 	bcc	20688 <_memcpy_lastbytes>
   20618:	e731c003 	ldr	ip, [r1, -r3]!
   2061c:	e3530002 	cmp	r3, #2
   20620:	0a000008 	beq	20648 <__aeabi_memcpy+0x74>
   20624:	8a00000f 	bhi	20668 <__aeabi_memcpy+0x94>
   20628:	e1a0342c 	lsr	r3, ip, #8
   2062c:	e5b1c004 	ldr	ip, [r1, #4]!
   20630:	e2522004 	subs	r2, r2, #4
   20634:	e1833c0c 	orr	r3, r3, ip, lsl #24
   20638:	e4803004 	str	r3, [r0], #4
   2063c:	2afffff9 	bcs	20628 <__aeabi_memcpy+0x54>
   20640:	e2811001 	add	r1, r1, #1
   20644:	ea00000f 	b	20688 <_memcpy_lastbytes>
   20648:	e1a0382c 	lsr	r3, ip, #16
   2064c:	e5b1c004 	ldr	ip, [r1, #4]!
   20650:	e2522004 	subs	r2, r2, #4
   20654:	e183380c 	orr	r3, r3, ip, lsl #16
   20658:	e4803004 	str	r3, [r0], #4
   2065c:	2afffff9 	bcs	20648 <__aeabi_memcpy+0x74>
   20660:	e2811002 	add	r1, r1, #2
   20664:	ea000007 	b	20688 <_memcpy_lastbytes>
   20668:	e1a03c2c 	lsr	r3, ip, #24
   2066c:	e5b1c004 	ldr	ip, [r1, #4]!
   20670:	e2522004 	subs	r2, r2, #4
   20674:	e183340c 	orr	r3, r3, ip, lsl #8
   20678:	e4803004 	str	r3, [r0], #4
   2067c:	2afffff9 	bcs	20668 <__aeabi_memcpy+0x94>
   20680:	e2811003 	add	r1, r1, #3
   20684:	e1a00000 	nop			; (mov r0, r0)

00020688 <_memcpy_lastbytes>:
   20688:	e1b02f82 	lsls	r2, r2, #31
   2068c:	24d13001 	ldrbcs	r3, [r1], #1
   20690:	24d1c001 	ldrbcs	ip, [r1], #1
   20694:	44d12001 	ldrbmi	r2, [r1], #1
   20698:	24c03001 	strbcs	r3, [r0], #1
   2069c:	24c0c001 	strbcs	ip, [r0], #1
   206a0:	44c02001 	strbmi	r2, [r0], #1
   206a4:	e12fff1e 	bx	lr
   206a8:	4778      	bx	pc
   206aa:	46c0      	nop			; (mov r8, r8)

000206ac <__aeabi_memcpy4>:
   206ac:	e92d4010 	push	{r4, lr}
   206b0:	e2522020 	subs	r2, r2, #32
   206b4:	3a000005 	bcc	206d0 <__aeabi_memcpy4+0x24>
   206b8:	e8b15018 	ldm	r1!, {r3, r4, ip, lr}
   206bc:	e2522020 	subs	r2, r2, #32
   206c0:	e8a05018 	stmia	r0!, {r3, r4, ip, lr}
   206c4:	e8b15018 	ldm	r1!, {r3, r4, ip, lr}
   206c8:	e8a05018 	stmia	r0!, {r3, r4, ip, lr}
   206cc:	2afffff9 	bcs	206b8 <__aeabi_memcpy4+0xc>
   206d0:	e1b0ce02 	lsls	ip, r2, #28
   206d4:	28b15018 	ldmcs	r1!, {r3, r4, ip, lr}
   206d8:	28a05018 	stmiacs	r0!, {r3, r4, ip, lr}
   206dc:	48b10018 	ldmmi	r1!, {r3, r4}
   206e0:	48a00018 	stmiami	r0!, {r3, r4}
   206e4:	e8bd4010 	pop	{r4, lr}
   206e8:	e1b0cf02 	lsls	ip, r2, #30
   206ec:	24913004 	ldrcs	r3, [r1], #4
   206f0:	24803004 	strcs	r3, [r0], #4
   206f4:	012fff1e 	bxeq	lr

000206f8 <_memcpy_lastbytes_aligned>:
   206f8:	e1b02f82 	lsls	r2, r2, #31
   206fc:	20d130b2 	ldrhcs	r3, [r1], #2
   20700:	44d12001 	ldrbmi	r2, [r1], #1
   20704:	20c030b2 	strhcs	r3, [r0], #2
   20708:	44c02001 	strbmi	r2, [r0], #1
   2070c:	e12fff1e 	bx	lr
   20710:	4778      	bx	pc
   20712:	46c0      	nop			; (mov r8, r8)

00020714 <__aeabi_memset>:
   20714:	e20230ff 	and	r3, r2, #255	; 0xff
   20718:	e1832403 	orr	r2, r3, r3, lsl #8
   2071c:	e1822802 	orr	r2, r2, r2, lsl #16
   20720:	ea000001 	b	2072c <_memset>
   20724:	4778      	bx	pc
   20726:	46c0      	nop			; (mov r8, r8)

00020728 <__aeabi_memclr>:
   20728:	e3a02000 	mov	r2, #0

0002072c <_memset>:
   2072c:	e3510004 	cmp	r1, #4
   20730:	3a000007 	bcc	20754 <_memset+0x28>
   20734:	e210c003 	ands	ip, r0, #3
   20738:	0a00000c 	beq	20770 <_memset_w>
   2073c:	e26cc004 	rsb	ip, ip, #4
   20740:	e35c0002 	cmp	ip, #2
   20744:	14c02001 	strbne	r2, [r0], #1
   20748:	e041100c 	sub	r1, r1, ip
   2074c:	a0c020b2 	strhge	r2, [r0], #2
   20750:	ea000006 	b	20770 <_memset_w>
   20754:	e1b0cf81 	lsls	ip, r1, #31
   20758:	24c02001 	strbcs	r2, [r0], #1
   2075c:	24c02001 	strbcs	r2, [r0], #1
   20760:	44c02001 	strbmi	r2, [r0], #1
   20764:	e12fff1e 	bx	lr
   20768:	4778      	bx	pc
   2076a:	46c0      	nop			; (mov r8, r8)

0002076c <__aeabi_memclr4>:
   2076c:	e3a02000 	mov	r2, #0

00020770 <_memset_w>:
   20770:	e92d4000 	stmfd	sp!, {lr}
   20774:	e1a03002 	mov	r3, r2
   20778:	e1a0c002 	mov	ip, r2
   2077c:	e1a0e002 	mov	lr, r2
   20780:	e2511020 	subs	r1, r1, #32
   20784:	28a0500c 	stmiacs	r0!, {r2, r3, ip, lr}
   20788:	28a0500c 	stmiacs	r0!, {r2, r3, ip, lr}
   2078c:	22511020 	subscs	r1, r1, #32
   20790:	2afffffb 	bcs	20784 <_memset_w+0x14>
   20794:	e1b01e01 	lsls	r1, r1, #28
   20798:	28a0500c 	stmiacs	r0!, {r2, r3, ip, lr}
   2079c:	48a0000c 	stmiami	r0!, {r2, r3}
   207a0:	e8bd4000 	ldmfd	sp!, {lr}
   207a4:	e1b01101 	lsls	r1, r1, #2
   207a8:	24802004 	strcs	r2, [r0], #4
   207ac:	012fff1e 	bxeq	lr
   207b0:	40c020b2 	strhmi	r2, [r0], #2
   207b4:	e3110101 	tst	r1, #1073741824	; 0x40000000
   207b8:	14c02001 	strbne	r2, [r0], #1
   207bc:	e12fff1e 	bx	lr
   207c0:	4778      	bx	pc
   207c2:	46c0      	nop			; (mov r8, r8)

000207c4 <strcmp>:
   207c4:	e3100003 	tst	r0, #3
   207c8:	03110003 	tsteq	r1, #3
   207cc:	1a00001e 	bne	2084c <strcmp+0x88>
   207d0:	e92d4000 	stmfd	sp!, {lr}
   207d4:	e59fe0a0 	ldr	lr, [pc, #160]	; 2087c <strcmp+0xb8>
   207d8:	e4902004 	ldr	r2, [r0], #4
   207dc:	e4913004 	ldr	r3, [r1], #4
   207e0:	e042c00e 	sub	ip, r2, lr
   207e4:	e1ccc002 	bic	ip, ip, r2
   207e8:	e01cc38e 	ands	ip, ip, lr, lsl #7
   207ec:	01520003 	cmpeq	r2, r3
   207f0:	1a000006 	bne	20810 <strcmp+0x4c>
   207f4:	e4902004 	ldr	r2, [r0], #4
   207f8:	e4913004 	ldr	r3, [r1], #4
   207fc:	e042c00e 	sub	ip, r2, lr
   20800:	e1ccc002 	bic	ip, ip, r2
   20804:	e01cc38e 	ands	ip, ip, lr, lsl #7
   20808:	01520003 	cmpeq	r2, r3
   2080c:	0afffff1 	beq	207d8 <strcmp+0x14>
   20810:	e8bd4000 	ldmfd	sp!, {lr}
   20814:	e1a00c03 	lsl	r0, r3, #24
   20818:	e0500c02 	subs	r0, r0, r2, lsl #24
   2081c:	031c0eff 	tsteq	ip, #4080	; 0xff0
   20820:	1a000007 	bne	20844 <strcmp+0x80>
   20824:	e1a00803 	lsl	r0, r3, #16
   20828:	e0500802 	subs	r0, r0, r2, lsl #16
   2082c:	031c0cff 	tsteq	ip, #65280	; 0xff00
   20830:	1a000003 	bne	20844 <strcmp+0x80>
   20834:	e1a00403 	lsl	r0, r3, #8
   20838:	e0500402 	subs	r0, r0, r2, lsl #8
   2083c:	031c08ff 	tsteq	ip, #16711680	; 0xff0000
   20840:	00530002 	subseq	r0, r3, r2
   20844:	11a00060 	rrxne	r0, r0
   20848:	e12fff1e 	bx	lr
   2084c:	e4d02001 	ldrb	r2, [r0], #1
   20850:	e4d13001 	ldrb	r3, [r1], #1
   20854:	e3520001 	cmp	r2, #1
   20858:	21520003 	cmpcs	r2, r3
   2085c:	1a000004 	bne	20874 <strcmp+0xb0>
   20860:	e4d02001 	ldrb	r2, [r0], #1
   20864:	e4d13001 	ldrb	r3, [r1], #1
   20868:	e3520001 	cmp	r2, #1
   2086c:	21520003 	cmpcs	r2, r3
   20870:	0afffff5 	beq	2084c <strcmp+0x88>
   20874:	e0420003 	sub	r0, r2, r3
   20878:	e12fff1e 	bx	lr
   2087c:	01010101 	.word	0x01010101

00020880 <__aeabi_idiv>:
   20880:	e1903001 	orrs	r3, r0, r1
   20884:	4a00004c 	bmi	209bc <__arm_div2+0x34>
   20888:	e07130a0 	rsbs	r3, r1, r0, lsr #1
   2088c:	3a000044 	bcc	209a4 <__arm_div2+0x1c>
   20890:	e3b02000 	movs	r2, #0
   20894:	e0713220 	rsbs	r3, r1, r0, lsr #4
   20898:	3a000034 	bcc	20970 <__arm_div5+0xc>
   2089c:	e0713420 	rsbs	r3, r1, r0, lsr #8
   208a0:	3a000026 	bcc	20940 <__arm_div8>
   208a4:	e0713620 	rsbs	r3, r1, r0, lsr #12
   208a8:	3a000017 	bcc	2090c <__arm_div12>
   208ac:	e0713820 	rsbs	r3, r1, r0, lsr #16
   208b0:	3a000009 	bcc	208dc <__arm_div16>

000208b4 <__arm_div_large_positive>:
   208b4:	e1a01401 	lsl	r1, r1, #8
   208b8:	e0713820 	rsbs	r3, r1, r0, lsr #16
   208bc:	e38224ff 	orr	r2, r2, #-16777216	; 0xff000000
   208c0:	238228ff 	orrcs	r2, r2, #16711680	; 0xff0000
   208c4:	21a01401 	lslcs	r1, r1, #8
   208c8:	e0713620 	rsbs	r3, r1, r0, lsr #12
   208cc:	3a00000e 	bcc	2090c <__arm_div12>
   208d0:	e2713000 	rsbs	r3, r1, #0
   208d4:	2a00006f 	bcs	20a98 <__arm_div2+0x110>
   208d8:	21a01421 	lsrcs	r1, r1, #8

000208dc <__arm_div16>:
   208dc:	e07137a0 	rsbs	r3, r1, r0, lsr #15
   208e0:	20400781 	subcs	r0, r0, r1, lsl #15
   208e4:	e0b22002 	adcs	r2, r2, r2
   208e8:	e0713720 	rsbs	r3, r1, r0, lsr #14
   208ec:	20400701 	subcs	r0, r0, r1, lsl #14
   208f0:	e0b22002 	adcs	r2, r2, r2
   208f4:	e07136a0 	rsbs	r3, r1, r0, lsr #13
   208f8:	20400681 	subcs	r0, r0, r1, lsl #13
   208fc:	e0b22002 	adcs	r2, r2, r2
   20900:	e0713620 	rsbs	r3, r1, r0, lsr #12
   20904:	20400601 	subcs	r0, r0, r1, lsl #12
   20908:	e0b22002 	adcs	r2, r2, r2

0002090c <__arm_div12>:
   2090c:	e07135a0 	rsbs	r3, r1, r0, lsr #11
   20910:	20400581 	subcs	r0, r0, r1, lsl #11
   20914:	e0b22002 	adcs	r2, r2, r2
   20918:	e0713520 	rsbs	r3, r1, r0, lsr #10
   2091c:	20400501 	subcs	r0, r0, r1, lsl #10
   20920:	e0b22002 	adcs	r2, r2, r2
   20924:	e07134a0 	rsbs	r3, r1, r0, lsr #9
   20928:	20400481 	subcs	r0, r0, r1, lsl #9
   2092c:	e0b22002 	adcs	r2, r2, r2
   20930:	e0713420 	rsbs	r3, r1, r0, lsr #8
   20934:	20400401 	subcs	r0, r0, r1, lsl #8
   20938:	e0b22002 	adcs	r2, r2, r2
   2093c:	2affffe5 	bcs	208d8 <__arm_div_large_positive+0x24>

00020940 <__arm_div8>:
   20940:	e07133a0 	rsbs	r3, r1, r0, lsr #7
   20944:	20400381 	subcs	r0, r0, r1, lsl #7
   20948:	e0b22002 	adcs	r2, r2, r2
   2094c:	e0713320 	rsbs	r3, r1, r0, lsr #6
   20950:	20400301 	subcs	r0, r0, r1, lsl #6
   20954:	e0b22002 	adcs	r2, r2, r2
   20958:	e07132a0 	rsbs	r3, r1, r0, lsr #5
   2095c:	20400281 	subcs	r0, r0, r1, lsl #5
   20960:	e0b22002 	adcs	r2, r2, r2

00020964 <__arm_div5>:
   20964:	e0713220 	rsbs	r3, r1, r0, lsr #4
   20968:	20400201 	subcs	r0, r0, r1, lsl #4
   2096c:	e0b22002 	adcs	r2, r2, r2
   20970:	e07131a0 	rsbs	r3, r1, r0, lsr #3
   20974:	20400181 	subcs	r0, r0, r1, lsl #3
   20978:	e0b22002 	adcs	r2, r2, r2
   2097c:	e0713120 	rsbs	r3, r1, r0, lsr #2
   20980:	20400101 	subcs	r0, r0, r1, lsl #2
   20984:	e0b22002 	adcs	r2, r2, r2

00020988 <__arm_div2>:
   20988:	e07130a0 	rsbs	r3, r1, r0, lsr #1
   2098c:	20400081 	subcs	r0, r0, r1, lsl #1
   20990:	e0b22002 	adcs	r2, r2, r2
   20994:	e0501001 	subs	r1, r0, r1
   20998:	31a01000 	movcc	r1, r0
   2099c:	e0a20002 	adc	r0, r2, r2
   209a0:	e12fff1e 	bx	lr
   209a4:	e0501001 	subs	r1, r0, r1
   209a8:	23a00001 	movcs	r0, #1
   209ac:	212fff1e 	bxcs	lr
   209b0:	e1a01000 	mov	r1, r0
   209b4:	e3b00000 	movs	r0, #0
   209b8:	e12fff1e 	bx	lr
   209bc:	e2112102 	ands	r2, r1, #-2147483648	; 0x80000000
   209c0:	42611000 	rsbmi	r1, r1, #0
   209c4:	e032c040 	eors	ip, r2, r0, asr #32
   209c8:	22600000 	rsbcs	r0, r0, #0
   209cc:	e0713220 	rsbs	r3, r1, r0, lsr #4
   209d0:	3a00001d 	bcc	20a4c <__arm_div2+0xc4>
   209d4:	e0713420 	rsbs	r3, r1, r0, lsr #8
   209d8:	3a00000f 	bcc	20a1c <__arm_div2+0x94>
   209dc:	e1a01301 	lsl	r1, r1, #6
   209e0:	e0713420 	rsbs	r3, r1, r0, lsr #8
   209e4:	e382233f 	orr	r2, r2, #-67108864	; 0xfc000000
   209e8:	3a00000b 	bcc	20a1c <__arm_div2+0x94>
   209ec:	e1a01301 	lsl	r1, r1, #6
   209f0:	e0713420 	rsbs	r3, r1, r0, lsr #8
   209f4:	e382263f 	orr	r2, r2, #66060288	; 0x3f00000
   209f8:	3a000007 	bcc	20a1c <__arm_div2+0x94>
   209fc:	e1a01301 	lsl	r1, r1, #6
   20a00:	e0713420 	rsbs	r3, r1, r0, lsr #8
   20a04:	e382293f 	orr	r2, r2, #1032192	; 0xfc000
   20a08:	21a01301 	lslcs	r1, r1, #6
   20a0c:	23822c3f 	orrcs	r2, r2, #16128	; 0x3f00
   20a10:	e2713000 	rsbs	r3, r1, #0
   20a14:	2a00001d 	bcs	20a90 <__arm_div2+0x108>
   20a18:	21a01321 	lsrcs	r1, r1, #6
   20a1c:	e07133a0 	rsbs	r3, r1, r0, lsr #7
   20a20:	20400381 	subcs	r0, r0, r1, lsl #7
   20a24:	e0b22002 	adcs	r2, r2, r2
   20a28:	e0713320 	rsbs	r3, r1, r0, lsr #6
   20a2c:	20400301 	subcs	r0, r0, r1, lsl #6
   20a30:	e0b22002 	adcs	r2, r2, r2
   20a34:	e07132a0 	rsbs	r3, r1, r0, lsr #5
   20a38:	20400281 	subcs	r0, r0, r1, lsl #5
   20a3c:	e0b22002 	adcs	r2, r2, r2
   20a40:	e0713220 	rsbs	r3, r1, r0, lsr #4
   20a44:	20400201 	subcs	r0, r0, r1, lsl #4
   20a48:	e0b22002 	adcs	r2, r2, r2
   20a4c:	e07131a0 	rsbs	r3, r1, r0, lsr #3
   20a50:	20400181 	subcs	r0, r0, r1, lsl #3
   20a54:	e0b22002 	adcs	r2, r2, r2
   20a58:	e0713120 	rsbs	r3, r1, r0, lsr #2
   20a5c:	20400101 	subcs	r0, r0, r1, lsl #2
   20a60:	e0b22002 	adcs	r2, r2, r2
   20a64:	2affffeb 	bcs	20a18 <__arm_div2+0x90>
   20a68:	e07130a0 	rsbs	r3, r1, r0, lsr #1
   20a6c:	20400081 	subcs	r0, r0, r1, lsl #1
   20a70:	e0b22002 	adcs	r2, r2, r2
   20a74:	e0501001 	subs	r1, r0, r1
   20a78:	31a01000 	movcc	r1, r0
   20a7c:	e0a20002 	adc	r0, r2, r2
   20a80:	e1b0cfcc 	asrs	ip, ip, #31
   20a84:	42600000 	rsbmi	r0, r0, #0
   20a88:	22611000 	rsbcs	r1, r1, #0
   20a8c:	e12fff1e 	bx	lr
   20a90:	e1b0cfcc 	asrs	ip, ip, #31
   20a94:	42600000 	rsbmi	r0, r0, #0
   20a98:	e92d4001 	push	{r0, lr}
   20a9c:	e3b00000 	movs	r0, #0
   20aa0:	eb000001 	bl	20aac <__aeabi_idiv0>
   20aa4:	e8bd4002 	pop	{r1, lr}
   20aa8:	e12fff1e 	bx	lr

00020aac <__aeabi_idiv0>:
   20aac:	ea000004 	b	20ac4 <__rt_div0>

00020ab0 <__aeabi_ldiv0>:
   20ab0:	ea000003 	b	20ac4 <__rt_div0>

00020ab4 <__rt_SIGPVFN>:
   20ab4:	0001      	movs	r1, r0
   20ab6:	b510      	push	{r4, lr}
   20ab8:	200c      	movs	r0, #12
   20aba:	f00e fbd7 	bl	2f26c <__rt_raise>
   20abe:	bc10      	pop	{r4}
   20ac0:	bc08      	pop	{r3}
   20ac2:	4718      	bx	r3

00020ac4 <__rt_div0>:
   20ac4:	e92d4007 	push	{r0, r1, r2, lr}
   20ac8:	e3b00002 	movs	r0, #2
   20acc:	eb000001 	bl	20ad8 <__rt_div0+0x14>
   20ad0:	e8bd4007 	pop	{r0, r1, r2, lr}
   20ad4:	e12fff1e 	bx	lr
   20ad8:	e28fc001 	add	ip, pc, #1
   20adc:	e12fff1c 	bx	ip

00020ae0 <__rt_SIGFPE>:
   20ae0:	0001      	movs	r1, r0
   20ae2:	b510      	push	{r4, lr}
   20ae4:	2002      	movs	r0, #2
   20ae6:	f00e fbc1 	bl	2f26c <__rt_raise>
   20aea:	bc10      	pop	{r4}
   20aec:	bc08      	pop	{r3}
   20aee:	4718      	bx	r3
   20af0:	4778      	bx	pc
   20af2:	46c0      	nop			; (mov r8, r8)

00020af4 <__aeabi_uidiv>:
   20af4:	e3b02000 	movs	r2, #0
   20af8:	e0713120 	rsbs	r3, r1, r0, lsr #2
   20afc:	3affffa1 	bcc	20988 <__arm_div2>
   20b00:	e07132a0 	rsbs	r3, r1, r0, lsr #5
   20b04:	3affff96 	bcc	20964 <__arm_div5>
   20b08:	e0713420 	rsbs	r3, r1, r0, lsr #8
   20b0c:	3affff8b 	bcc	20940 <__arm_div8>
   20b10:	e0713620 	rsbs	r3, r1, r0, lsr #12
   20b14:	3affff7c 	bcc	2090c <__arm_div12>
   20b18:	e0713820 	rsbs	r3, r1, r0, lsr #16
   20b1c:	3affff6e 	bcc	208dc <__arm_div16>
   20b20:	eaffff63 	b	208b4 <__arm_div_large_positive>
   20b24:	4778      	bx	pc
   20b26:	46c0      	nop			; (mov r8, r8)

00020b28 <rpm_jettison_core>:
   20b28:	e52d0004 	push	{r0}		; (str r0, [sp, #-4]!)
   20b2c:	e52d7004 	push	{r7}		; (str r7, [sp, #-4]!)
   20b30:	e59f7088 	ldr	r7, [pc, #136]	; 20bc0 <rpm_jettison_core+0x98>
   20b34:	e5977000 	ldr	r7, [r7]
   20b38:	e8a7007f 	stmia	r7!, {r0, r1, r2, r3, r4, r5, r6}
   20b3c:	e1a00007 	mov	r0, r7
   20b40:	e49d7004 	pop	{r7}		; (ldr r7, [sp], #4)
   20b44:	e5807000 	str	r7, [r0]
   20b48:	e2807004 	add	r7, r0, #4
   20b4c:	e49d2004 	pop	{r2}		; (ldr r2, [sp], #4)
   20b50:	e8a77f00 	stmia	r7!, {r8, r9, sl, fp, ip, sp, lr}
   20b54:	e10f0000 	mrs	r0, CPSR
   20b58:	e10f1000 	mrs	r1, CPSR
   20b5c:	e8a70001 	stmia	r7!, {r0}
   20b60:	e59f005c 	ldr	r0, [pc, #92]	; 20bc4 <rpm_jettison_core+0x9c>
   20b64:	e8a70001 	stmia	r7!, {r0}
   20b68:	e321f0d7 	msr	CPSR_c, #215	; 0xd7
   20b6c:	e8a76000 	stmia	r7!, {sp, lr}
   20b70:	e14f0000 	mrs	r0, SPSR
   20b74:	e8a70001 	stmia	r7!, {r0}
   20b78:	e321f0d1 	msr	CPSR_c, #209	; 0xd1
   20b7c:	e8a77f00 	stmia	r7!, {r8, r9, sl, fp, ip, sp, lr}
   20b80:	e14f0000 	mrs	r0, SPSR
   20b84:	e8a70001 	stmia	r7!, {r0}
   20b88:	e321f0d2 	msr	CPSR_c, #210	; 0xd2
   20b8c:	e8a76000 	stmia	r7!, {sp, lr}
   20b90:	e14f0000 	mrs	r0, SPSR
   20b94:	e8a70001 	stmia	r7!, {r0}
   20b98:	e321f0db 	msr	CPSR_c, #219	; 0xdb
   20b9c:	e8a76000 	stmia	r7!, {sp, lr}
   20ba0:	e14f0000 	mrs	r0, SPSR
   20ba4:	e8a70001 	stmia	r7!, {r0}
   20ba8:	e321f0d3 	msr	CPSR_c, #211	; 0xd3
   20bac:	e8a76000 	stmia	r7!, {sp, lr}
   20bb0:	e14f0000 	mrs	r0, SPSR
   20bb4:	e8a70001 	stmia	r7!, {r0}
   20bb8:	e12ff001 	msr	CPSR_fsxc, r1
   20bbc:	e12fff1e 	bx	lr
   20bc0:	0003a80c 	.word	0x0003a80c
   20bc4:	00020b28 	.word	0x00020b28

00020bc8 <IRQ_Handler>:
   20bc8:	e24ee004 	sub	lr, lr, #4
   20bcc:	e92d540f 	push	{r0, r1, r2, r3, sl, ip, lr}
   20bd0:	e14f0000 	mrs	r0, SPSR
   20bd4:	e92d0001 	stmfd	sp!, {r0}
   20bd8:	e59f02b4 	ldr	r0, [pc, #692]	; 20e94 <DBGBreak_32+0x8>
   20bdc:	e1d010b0 	ldrh	r1, [r0]
   20be0:	e2811001 	add	r1, r1, #1
   20be4:	e1c010b0 	strh	r1, [r0]
   20be8:	e321f09f 	msr	CPSR_c, #159	; 0x9f
   20bec:	e92d4000 	stmfd	sp!, {lr}
   20bf0:	e59f32a0 	ldr	r3, [pc, #672]	; 20e98 <DBGBreak_32+0xc>
   20bf4:	e5933000 	ldr	r3, [r3]
   20bf8:	e59fe29c 	ldr	lr, [pc, #668]	; 20e9c <DBGBreak_32+0x10>
   20bfc:	e12fff13 	bx	r3
   20c00:	e8bd4000 	ldmfd	sp!, {lr}
   20c04:	e321f0d2 	msr	CPSR_c, #210	; 0xd2
   20c08:	e59f0284 	ldr	r0, [pc, #644]	; 20e94 <DBGBreak_32+0x8>
   20c0c:	e1d010b0 	ldrh	r1, [r0]
   20c10:	e2511001 	subs	r1, r1, #1
   20c14:	e1c010b0 	strh	r1, [r0]
   20c18:	1a000028 	bne	20cc0 <IRQ_Handler+0xf8>
   20c1c:	e59f027c 	ldr	r0, [pc, #636]	; 20ea0 <DBGBreak_32+0x14>
   20c20:	e5900000 	ldr	r0, [r0]
   20c24:	e59f1278 	ldr	r1, [pc, #632]	; 20ea4 <DBGBreak_32+0x18>
   20c28:	e5911000 	ldr	r1, [r1]
   20c2c:	e1500001 	cmp	r0, r1
   20c30:	0a00001e 	beq	20cb0 <IRQ_Handler+0xe8>
   20c34:	e59f226c 	ldr	r2, [pc, #620]	; 20ea8 <DBGBreak_32+0x1c>
   20c38:	e5922000 	ldr	r2, [r2]
   20c3c:	e3520000 	cmp	r2, #0
   20c40:	0a00001a 	beq	20cb0 <IRQ_Handler+0xe8>
   20c44:	e8bd0001 	ldmfd	sp!, {r0}
   20c48:	e168f000 	msr	SPSR_f, r0
   20c4c:	e161f000 	msr	SPSR_c, r0
   20c50:	e8bd540f 	pop	{r0, r1, r2, r3, sl, ip, lr}
   20c54:	e321f0d3 	msr	CPSR_c, #211	; 0xd3
   20c58:	e24dd004 	sub	sp, sp, #4
   20c5c:	e92d5fff 	push	{r0, r1, r2, r3, r4, r5, r6, r7, r8, r9, sl, fp, ip, lr}
   20c60:	e24dd004 	sub	sp, sp, #4
   20c64:	e1a0100d 	mov	r1, sp
   20c68:	e59f0230 	ldr	r0, [pc, #560]	; 20ea0 <DBGBreak_32+0x14>
   20c6c:	e5902000 	ldr	r2, [r0]
   20c70:	e5821000 	str	r1, [r2]
   20c74:	e321f0d2 	msr	CPSR_c, #210	; 0xd2
   20c78:	e581e03c 	str	lr, [r1, #60]	; 0x3c
   20c7c:	e14f3000 	mrs	r3, SPSR
   20c80:	e5813000 	str	r3, [r1]
   20c84:	e321f0d3 	msr	CPSR_c, #211	; 0xd3
   20c88:	e59f1214 	ldr	r1, [pc, #532]	; 20ea4 <DBGBreak_32+0x18>
   20c8c:	e5911000 	ldr	r1, [r1]
   20c90:	e5801000 	str	r1, [r0]
   20c94:	e591d000 	ldr	sp, [r1]
   20c98:	e8bd0001 	ldmfd	sp!, {r0}
   20c9c:	e168f000 	msr	SPSR_f, r0
   20ca0:	e161f000 	msr	SPSR_c, r0
   20ca4:	e1a0100d 	mov	r1, sp
   20ca8:	e28dd03c 	add	sp, sp, #60	; 0x3c
   20cac:	e8d1dfff 	ldm	r1, {r0, r1, r2, r3, r4, r5, r6, r7, r8, r9, sl, fp, ip, lr, pc}^
   20cb0:	e8bd0001 	ldmfd	sp!, {r0}
   20cb4:	e168f000 	msr	SPSR_f, r0
   20cb8:	e161f000 	msr	SPSR_c, r0
   20cbc:	e8fd940f 	ldm	sp!, {r0, r1, r2, r3, sl, ip, pc}^
   20cc0:	e8bd0001 	ldmfd	sp!, {r0}
   20cc4:	e168f000 	msr	SPSR_f, r0
   20cc8:	e161f000 	msr	SPSR_c, r0
   20ccc:	e8fd940f 	ldm	sp!, {r0, r1, r2, r3, sl, ip, pc}^

00020cd0 <FIQ_Handler>:
   20cd0:	e24ee004 	sub	lr, lr, #4
   20cd4:	e92d400f 	push	{r0, r1, r2, r3, lr}
   20cd8:	e14f0000 	mrs	r0, SPSR
   20cdc:	e92d0001 	stmfd	sp!, {r0}
   20ce0:	e321f0df 	msr	CPSR_c, #223	; 0xdf
   20ce4:	e92d4000 	stmfd	sp!, {lr}
   20ce8:	e59f31bc 	ldr	r3, [pc, #444]	; 20eac <DBGBreak_32+0x20>
   20cec:	e5933000 	ldr	r3, [r3]
   20cf0:	e59fe1b8 	ldr	lr, [pc, #440]	; 20eb0 <DBGBreak_32+0x24>
   20cf4:	e12fff13 	bx	r3
   20cf8:	e8bd4000 	ldmfd	sp!, {lr}
   20cfc:	e321f0d1 	msr	CPSR_c, #209	; 0xd1
   20d00:	e8bd0001 	ldmfd	sp!, {r0}
   20d04:	e168f000 	msr	SPSR_f, r0
   20d08:	e161f000 	msr	SPSR_c, r0
   20d0c:	e8fd800f 	ldm	sp!, {r0, r1, r2, r3, pc}^

00020d10 <rex_sched>:
   20d10:	4778      	bx	pc
	...

00020d14 <rex_sched_32>:
   20d14:	e10f2000 	mrs	r2, CPSR
   20d18:	e59f0194 	ldr	r0, [pc, #404]	; 20eb4 <DBGBreak_32+0x28>
   20d1c:	e5802000 	str	r2, [r0]
   20d20:	e38200c0 	orr	r0, r2, #192	; 0xc0
   20d24:	e121f000 	msr	CPSR_c, r0
   20d28:	e202001f 	and	r0, r2, #31
   20d2c:	e3500013 	cmp	r0, #19
   20d30:	1a000024 	bne	20dc8 <rex_start_task_1+0x1c>
   20d34:	e59f116c 	ldr	r1, [pc, #364]	; 20ea8 <DBGBreak_32+0x1c>
   20d38:	e5911000 	ldr	r1, [r1]
   20d3c:	e3510000 	cmp	r1, #0
   20d40:	0a000020 	beq	20dc8 <rex_start_task_1+0x1c>
   20d44:	e59f1158 	ldr	r1, [pc, #344]	; 20ea4 <DBGBreak_32+0x18>
   20d48:	e5911000 	ldr	r1, [r1]
   20d4c:	e59f0164 	ldr	r0, [pc, #356]	; 20eb8 <DBGBreak_32+0x2c>
   20d50:	e5801000 	str	r1, [r0]
   20d54:	e59f0158 	ldr	r0, [pc, #344]	; 20eb4 <DBGBreak_32+0x28>
   20d58:	e5902000 	ldr	r2, [r0]
   20d5c:	e59f313c 	ldr	r3, [pc, #316]	; 20ea0 <DBGBreak_32+0x14>
   20d60:	e5930000 	ldr	r0, [r3]
   20d64:	e59f114c 	ldr	r1, [pc, #332]	; 20eb8 <DBGBreak_32+0x2c>
   20d68:	e5911000 	ldr	r1, [r1]
   20d6c:	e1510000 	cmp	r1, r0
   20d70:	0a000014 	beq	20dc8 <rex_start_task_1+0x1c>
   20d74:	e5831000 	str	r1, [r3]
   20d78:	e1a03000 	mov	r3, r0
   20d7c:	e5910008 	ldr	r0, [r1, #8]
   20d80:	e2800001 	add	r0, r0, #1
   20d84:	e5810008 	str	r0, [r1, #8]
   20d88:	e92d4000 	stmfd	sp!, {lr}
   20d8c:	e24dd008 	sub	sp, sp, #8
   20d90:	e92d0ff0 	push	{r4, r5, r6, r7, r8, r9, sl, fp}
   20d94:	e24dd010 	sub	sp, sp, #16
   20d98:	e31e0001 	tst	lr, #1
   20d9c:	13822020 	orrne	r2, r2, #32
   20da0:	e92d0004 	stmfd	sp!, {r2}
   20da4:	e583d000 	str	sp, [r3]
   20da8:	e1a00001 	mov	r0, r1

00020dac <rex_start_task_1>:
   20dac:	e590d000 	ldr	sp, [r0]
   20db0:	e8bd0001 	ldmfd	sp!, {r0}
   20db4:	e168f000 	msr	SPSR_f, r0
   20db8:	e161f000 	msr	SPSR_c, r0
   20dbc:	e1a0000d 	mov	r0, sp
   20dc0:	e28dd03c 	add	sp, sp, #60	; 0x3c
   20dc4:	e8d0dfff 	ldm	r0, {r0, r1, r2, r3, r4, r5, r6, r7, r8, r9, sl, fp, ip, lr, pc}^
   20dc8:	e128f002 	msr	CPSR_f, r2
   20dcc:	e121f002 	msr	CPSR_c, r2
   20dd0:	e12fff1e 	bx	lr

00020dd4 <Alternate_entries>:
   20dd4:	e12fff1f 	bx	pc
   20dd8:	e1a00000 	nop			; (mov r0, r0)

00020ddc <rex_start_task>:
   20ddc:	e59f30d8 	ldr	r3, [pc, #216]	; 20ebc <DBGBreak_32+0x30>
   20de0:	e12fff13 	bx	r3

00020de4 <rex_int_lock>:
   20de4:	4778      	bx	pc
	...

00020de8 <rex_int_lock_32>:
   20de8:	e10f0000 	mrs	r0, CPSR
   20dec:	e3801080 	orr	r1, r0, #128	; 0x80
   20df0:	e121f001 	msr	CPSR_c, r1
   20df4:	e2000080 	and	r0, r0, #128	; 0x80
   20df8:	e12fff1e 	bx	lr

00020dfc <rex_int_free>:
   20dfc:	4778      	bx	pc
	...

00020e00 <rex_int_free_32>:
   20e00:	e10f0000 	mrs	r0, CPSR
   20e04:	e3c01080 	bic	r1, r0, #128	; 0x80
   20e08:	e121f001 	msr	CPSR_c, r1
   20e0c:	e2000080 	and	r0, r0, #128	; 0x80
   20e10:	e12fff1e 	bx	lr

00020e14 <rex_ints_are_locked>:
   20e14:	4778      	bx	pc
	...

00020e18 <rex_ints_are_locked_32>:
   20e18:	e10f0000 	mrs	r0, CPSR
   20e1c:	e2000080 	and	r0, r0, #128	; 0x80
   20e20:	e12fff1e 	bx	lr

00020e24 <rex_enable_interrupt>:
   20e24:	4778      	bx	pc
	...

00020e28 <rex_enable_interrupt_32>:
   20e28:	e10f1000 	mrs	r1, CPSR
   20e2c:	e3500000 	cmp	r0, #0
   20e30:	03c11080 	biceq	r1, r1, #128	; 0x80
   20e34:	13c11040 	bicne	r1, r1, #64	; 0x40
   20e38:	e121f001 	msr	CPSR_c, r1
   20e3c:	e12fff1e 	bx	lr

00020e40 <rex_disable_interrupt>:
   20e40:	4778      	bx	pc
	...

00020e44 <rex_disable_interrupt_32>:
   20e44:	e10f1000 	mrs	r1, CPSR
   20e48:	e3500000 	cmp	r0, #0
   20e4c:	03811080 	orreq	r1, r1, #128	; 0x80
   20e50:	13811040 	orrne	r1, r1, #64	; 0x40
   20e54:	e121f001 	msr	CPSR_c, r1
   20e58:	e12fff1e 	bx	lr

00020e5c <rex_set_cpsr>:
   20e5c:	4778      	bx	pc
	...

00020e60 <rex_set_cpsr_32>:
   20e60:	e10f2000 	mrs	r2, CPSR
   20e64:	e1a0100e 	mov	r1, lr
   20e68:	e128f000 	msr	CPSR_f, r0
   20e6c:	e121f000 	msr	CPSR_c, r0
   20e70:	e1a00002 	mov	r0, r2
   20e74:	e1a0e001 	mov	lr, r1
   20e78:	e12fff1e 	bx	lr

00020e7c <rex_get_cpsr>:
   20e7c:	4778      	bx	pc
	...

00020e80 <rex_get_cpsr_32>:
   20e80:	e10f0000 	mrs	r0, CPSR
   20e84:	e12fff1e 	bx	lr

00020e88 <DBGBreak>:
   20e88:	4778      	bx	pc
	...

00020e8c <DBGBreak_32>:
   20e8c:	eafffffe 	b	20e8c <DBGBreak_32>
   20e90:	e12fff1e 	bx	lr
   20e94:	0003a734 	.word	0x0003a734
   20e98:	0003a758 	.word	0x0003a758
   20e9c:	00020c00 	.word	0x00020c00
   20ea0:	0003a750 	.word	0x0003a750
   20ea4:	0003a754 	.word	0x0003a754
   20ea8:	0003a73c 	.word	0x0003a73c
   20eac:	0003a75c 	.word	0x0003a75c
   20eb0:	00020cf8 	.word	0x00020cf8
   20eb4:	0003a76c 	.word	0x0003a76c
   20eb8:	0003a768 	.word	0x0003a768
   20ebc:	00020dac 	.word	0x00020dac
   20ec0:	4778      	bx	pc
   20ec2:	46c0      	nop			; (mov r8, r8)
   20ec4:	eaffffc4 	b	20ddc <rex_start_task>

00020ec8 <AxiPD_GetMasterTokensPerClk>:
   20ec8:	2005      	movs	r0, #5
   20eca:	4770      	bx	lr

00020ecc <AxiPD_GetSlaveIndex>:
   20ecc:	b4f0      	push	{r4, r5, r6, r7}
   20ece:	0003      	movs	r3, r0
   20ed0:	681b      	ldr	r3, [r3, #0]
   20ed2:	4c18      	ldr	r4, [pc, #96]	; (20f34 <AxiPD_GetSlaveIndex+0x68>)
   20ed4:	2000      	movs	r0, #0
   20ed6:	191b      	adds	r3, r3, r4
   20ed8:	0005      	movs	r5, r0
   20eda:	2601      	movs	r6, #1
   20edc:	1e44      	subs	r4, r0, #1
   20ede:	2b00      	cmp	r3, #0
   20ee0:	d005      	beq.n	20eee <AxiPD_GetSlaveIndex+0x22>
   20ee2:	2702      	movs	r7, #2
   20ee4:	2b01      	cmp	r3, #1
   20ee6:	d013      	beq.n	20f10 <AxiPD_GetSlaveIndex+0x44>
   20ee8:	2b02      	cmp	r3, #2
   20eea:	d120      	bne.n	20f2e <AxiPD_GetSlaveIndex+0x62>
   20eec:	e019      	b.n	20f22 <AxiPD_GetSlaveIndex+0x56>
   20eee:	2a00      	cmp	r2, #0
   20ef0:	d004      	beq.n	20efc <AxiPD_GetSlaveIndex+0x30>
   20ef2:	2a01      	cmp	r2, #1
   20ef4:	d005      	beq.n	20f02 <AxiPD_GetSlaveIndex+0x36>
   20ef6:	2a02      	cmp	r2, #2
   20ef8:	d119      	bne.n	20f2e <AxiPD_GetSlaveIndex+0x62>
   20efa:	e005      	b.n	20f08 <AxiPD_GetSlaveIndex+0x3c>
   20efc:	600d      	str	r5, [r1, #0]
   20efe:	bcf0      	pop	{r4, r5, r6, r7}
   20f00:	4770      	bx	lr
   20f02:	600e      	str	r6, [r1, #0]
   20f04:	bcf0      	pop	{r4, r5, r6, r7}
   20f06:	4770      	bx	lr
   20f08:	2203      	movs	r2, #3
   20f0a:	600a      	str	r2, [r1, #0]
   20f0c:	bcf0      	pop	{r4, r5, r6, r7}
   20f0e:	4770      	bx	lr
   20f10:	2a00      	cmp	r2, #0
   20f12:	d0f3      	beq.n	20efc <AxiPD_GetSlaveIndex+0x30>
   20f14:	2a01      	cmp	r2, #1
   20f16:	d0f4      	beq.n	20f02 <AxiPD_GetSlaveIndex+0x36>
   20f18:	2a02      	cmp	r2, #2
   20f1a:	d108      	bne.n	20f2e <AxiPD_GetSlaveIndex+0x62>
   20f1c:	600f      	str	r7, [r1, #0]
   20f1e:	bcf0      	pop	{r4, r5, r6, r7}
   20f20:	4770      	bx	lr
   20f22:	2a00      	cmp	r2, #0
   20f24:	d0ea      	beq.n	20efc <AxiPD_GetSlaveIndex+0x30>
   20f26:	2a01      	cmp	r2, #1
   20f28:	d0eb      	beq.n	20f02 <AxiPD_GetSlaveIndex+0x36>
   20f2a:	2a02      	cmp	r2, #2
   20f2c:	d0f6      	beq.n	20f1c <AxiPD_GetSlaveIndex+0x50>
   20f2e:	0020      	movs	r0, r4
   20f30:	bcf0      	pop	{r4, r5, r6, r7}
   20f32:	4770      	bx	lr
   20f34:	fdfffee1 	.word	0xfdfffee1

00020f38 <AxiPD_GetSlaveIndexEx>:
   20f38:	b5f0      	push	{r4, r5, r6, r7, lr}
   20f3a:	0016      	movs	r6, r2
   20f3c:	9c05      	ldr	r4, [sp, #20]
   20f3e:	0005      	movs	r5, r0
   20f40:	001a      	movs	r2, r3
   20f42:	f7ff ffc3 	bl	20ecc <AxiPD_GetSlaveIndex>
   20f46:	0007      	movs	r7, r0
   20f48:	d110      	bne.n	20f6c <AxiPD_GetSlaveIndexEx+0x34>
   20f4a:	68a8      	ldr	r0, [r5, #8]
   20f4c:	2100      	movs	r1, #0
   20f4e:	6905      	ldr	r5, [r0, #16]
   20f50:	000a      	movs	r2, r1
   20f52:	000b      	movs	r3, r1
   20f54:	2d00      	cmp	r5, #0
   20f56:	d908      	bls.n	20f6a <AxiPD_GetSlaveIndexEx+0x32>
   20f58:	0048      	lsls	r0, r1, #1
   20f5a:	5a20      	ldrh	r0, [r4, r0]
   20f5c:	4290      	cmp	r0, r2
   20f5e:	d901      	bls.n	20f64 <AxiPD_GetSlaveIndexEx+0x2c>
   20f60:	0002      	movs	r2, r0
   20f62:	000b      	movs	r3, r1
   20f64:	1c49      	adds	r1, r1, #1
   20f66:	428d      	cmp	r5, r1
   20f68:	d8f6      	bhi.n	20f58 <AxiPD_GetSlaveIndexEx+0x20>
   20f6a:	6033      	str	r3, [r6, #0]
   20f6c:	0038      	movs	r0, r7
   20f6e:	bcf0      	pop	{r4, r5, r6, r7}
   20f70:	bc08      	pop	{r3}
   20f72:	4718      	bx	r3

00020f74 <AxiPD_GetTargetDeps>:
   20f74:	4a02      	ldr	r2, [pc, #8]	; (20f80 <AxiPD_GetTargetDeps+0xc>)
   20f76:	6002      	str	r2, [r0, #0]
   20f78:	2004      	movs	r0, #4
   20f7a:	6008      	str	r0, [r1, #0]
   20f7c:	2000      	movs	r0, #0
   20f7e:	4770      	bx	lr
   20f80:	0003c9e4 	.word	0x0003c9e4

00020f84 <AxiPD_ReqFreq>:
   20f84:	b570      	push	{r4, r5, r6, lr}
   20f86:	0005      	movs	r5, r0
   20f88:	6880      	ldr	r0, [r0, #8]
   20f8a:	000e      	movs	r6, r1
   20f8c:	6a80      	ldr	r0, [r0, #40]	; 0x28
   20f8e:	6842      	ldr	r2, [r0, #4]
   20f90:	6881      	ldr	r1, [r0, #8]
   20f92:	0030      	movs	r0, r6
   20f94:	4308      	orrs	r0, r1
   20f96:	d006      	beq.n	20fa6 <AxiPD_ReqFreq+0x22>
   20f98:	2900      	cmp	r1, #0
   20f9a:	d001      	beq.n	20fa0 <AxiPD_ReqFreq+0x1c>
   20f9c:	2e01      	cmp	r6, #1
   20f9e:	d002      	beq.n	20fa6 <AxiPD_ReqFreq+0x22>
   20fa0:	0010      	movs	r0, r2
   20fa2:	f012 fd8d 	bl	33ac0 <npa_issue_scalar_request>
   20fa6:	68a8      	ldr	r0, [r5, #8]
   20fa8:	6ac1      	ldr	r1, [r0, #44]	; 0x2c
   20faa:	2900      	cmp	r1, #0
   20fac:	d01b      	beq.n	20fe6 <AxiPD_ReqFreq+0x62>
   20fae:	6900      	ldr	r0, [r0, #16]
   20fb0:	2400      	movs	r4, #0
   20fb2:	2800      	cmp	r0, #0
   20fb4:	d917      	bls.n	20fe6 <AxiPD_ReqFreq+0x62>
   20fb6:	220c      	movs	r2, #12
   20fb8:	4362      	muls	r2, r4
   20fba:	68a8      	ldr	r0, [r5, #8]
   20fbc:	6ac1      	ldr	r1, [r0, #44]	; 0x2c
   20fbe:	1d10      	adds	r0, r2, #4
   20fc0:	5808      	ldr	r0, [r1, r0]
   20fc2:	2800      	cmp	r0, #0
   20fc4:	d00a      	beq.n	20fdc <AxiPD_ReqFreq+0x58>
   20fc6:	3208      	adds	r2, #8
   20fc8:	5889      	ldr	r1, [r1, r2]
   20fca:	0032      	movs	r2, r6
   20fcc:	430a      	orrs	r2, r1
   20fce:	d005      	beq.n	20fdc <AxiPD_ReqFreq+0x58>
   20fd0:	2900      	cmp	r1, #0
   20fd2:	d001      	beq.n	20fd8 <AxiPD_ReqFreq+0x54>
   20fd4:	2e01      	cmp	r6, #1
   20fd6:	d001      	beq.n	20fdc <AxiPD_ReqFreq+0x58>
   20fd8:	f012 fd72 	bl	33ac0 <npa_issue_scalar_request>
   20fdc:	68a8      	ldr	r0, [r5, #8]
   20fde:	1c64      	adds	r4, r4, #1
   20fe0:	6900      	ldr	r0, [r0, #16]
   20fe2:	42a0      	cmp	r0, r4
   20fe4:	d8e7      	bhi.n	20fb6 <AxiPD_ReqFreq+0x32>
   20fe6:	bc70      	pop	{r4, r5, r6}
   20fe8:	bc08      	pop	{r3}
   20fea:	4718      	bx	r3

00020fec <AxiPD_TargetInitDevice>:
   20fec:	b5f0      	push	{r4, r5, r6, r7, lr}
   20fee:	0004      	movs	r4, r0
   20ff0:	6800      	ldr	r0, [r0, #0]
   20ff2:	4f59      	ldr	r7, [pc, #356]	; (21158 <AxiPD_TargetInitDevice+0x16c>)
   20ff4:	2500      	movs	r5, #0
   20ff6:	19c0      	adds	r0, r0, r7
   20ff8:	2601      	movs	r6, #1
   20ffa:	2800      	cmp	r0, #0
   20ffc:	b08d      	sub	sp, #52	; 0x34
   20ffe:	d004      	beq.n	2100a <AxiPD_TargetInitDevice+0x1e>
   21000:	2801      	cmp	r0, #1
   21002:	d005      	beq.n	21010 <AxiPD_TargetInitDevice+0x24>
   21004:	2802      	cmp	r0, #2
   21006:	d17e      	bne.n	21106 <AxiPD_TargetInitDevice+0x11a>
   21008:	e007      	b.n	2101a <AxiPD_TargetInitDevice+0x2e>
   2100a:	4854      	ldr	r0, [pc, #336]	; (2115c <AxiPD_TargetInitDevice+0x170>)
   2100c:	6065      	str	r5, [r4, #4]
   2100e:	e002      	b.n	21016 <AxiPD_TargetInitDevice+0x2a>
   21010:	2002      	movs	r0, #2
   21012:	6060      	str	r0, [r4, #4]
   21014:	4852      	ldr	r0, [pc, #328]	; (21160 <AxiPD_TargetInitDevice+0x174>)
   21016:	60a0      	str	r0, [r4, #8]
   21018:	e002      	b.n	21020 <AxiPD_TargetInitDevice+0x34>
   2101a:	4852      	ldr	r0, [pc, #328]	; (21164 <AxiPD_TargetInitDevice+0x178>)
   2101c:	6066      	str	r6, [r4, #4]
   2101e:	60a0      	str	r0, [r4, #8]
   21020:	6860      	ldr	r0, [r4, #4]
   21022:	2100      	movs	r1, #0
   21024:	f003 fd80 	bl	24b28 <HAL_axifab_Init>
   21028:	6860      	ldr	r0, [r4, #4]
   2102a:	a90a      	add	r1, sp, #40	; 0x28
   2102c:	f003 fd48 	bl	24ac0 <HAL_axifab_GetProperties>
   21030:	980a      	ldr	r0, [sp, #40]	; 0x28
   21032:	68a1      	ldr	r1, [r4, #8]
   21034:	2300      	movs	r3, #0
   21036:	6088      	str	r0, [r1, #8]
   21038:	980b      	ldr	r0, [sp, #44]	; 0x2c
   2103a:	68a1      	ldr	r1, [r4, #8]
   2103c:	2240      	movs	r2, #64	; 0x40
   2103e:	60c8      	str	r0, [r1, #12]
   21040:	980c      	ldr	r0, [sp, #48]	; 0x30
   21042:	68a1      	ldr	r1, [r4, #8]
   21044:	6108      	str	r0, [r1, #16]
   21046:	9500      	str	r5, [sp, #0]
   21048:	68a0      	ldr	r0, [r4, #8]
   2104a:	a147      	add	r1, pc, #284	; (adr r1, 21168 <AxiPD_TargetInitDevice+0x17c>)
   2104c:	6a80      	ldr	r0, [r0, #40]	; 0x28
   2104e:	6800      	ldr	r0, [r0, #0]
   21050:	f012 f992 	bl	33378 <npa_create_sync_client_ex>
   21054:	68a1      	ldr	r1, [r4, #8]
   21056:	2800      	cmp	r0, #0
   21058:	6a89      	ldr	r1, [r1, #40]	; 0x28
   2105a:	6048      	str	r0, [r1, #4]
   2105c:	d107      	bne.n	2106e <AxiPD_TargetInitDevice+0x82>
   2105e:	f7ff fd61 	bl	20b24 <__aeabi_uidiv+0x30>
   21062:	4678      	mov	r0, pc
   21064:	2300      	movs	r3, #0
   21066:	001a      	movs	r2, r3
   21068:	0019      	movs	r1, r3
   2106a:	f011 fae5 	bl	32638 <err_fatal_handler>
   2106e:	68a0      	ldr	r0, [r4, #8]
   21070:	6ac0      	ldr	r0, [r0, #44]	; 0x2c
   21072:	2800      	cmp	r0, #0
   21074:	d02a      	beq.n	210cc <AxiPD_TargetInitDevice+0xe0>
   21076:	9501      	str	r5, [sp, #4]
   21078:	68a0      	ldr	r0, [r4, #8]
   2107a:	6900      	ldr	r0, [r0, #16]
   2107c:	2800      	cmp	r0, #0
   2107e:	d925      	bls.n	210cc <AxiPD_TargetInitDevice+0xe0>
   21080:	68a0      	ldr	r0, [r4, #8]
   21082:	220c      	movs	r2, #12
   21084:	6ac1      	ldr	r1, [r0, #44]	; 0x2c
   21086:	9801      	ldr	r0, [sp, #4]
   21088:	4350      	muls	r0, r2
   2108a:	5808      	ldr	r0, [r1, r0]
   2108c:	2800      	cmp	r0, #0
   2108e:	d016      	beq.n	210be <AxiPD_TargetInitDevice+0xd2>
   21090:	2300      	movs	r3, #0
   21092:	2240      	movs	r2, #64	; 0x40
   21094:	a134      	add	r1, pc, #208	; (adr r1, 21168 <AxiPD_TargetInitDevice+0x17c>)
   21096:	9500      	str	r5, [sp, #0]
   21098:	f012 f96e 	bl	33378 <npa_create_sync_client_ex>
   2109c:	68a1      	ldr	r1, [r4, #8]
   2109e:	230c      	movs	r3, #12
   210a0:	6aca      	ldr	r2, [r1, #44]	; 0x2c
   210a2:	9901      	ldr	r1, [sp, #4]
   210a4:	4359      	muls	r1, r3
   210a6:	1d09      	adds	r1, r1, #4
   210a8:	2800      	cmp	r0, #0
   210aa:	5050      	str	r0, [r2, r1]
   210ac:	d107      	bne.n	210be <AxiPD_TargetInitDevice+0xd2>
   210ae:	f7ff fd39 	bl	20b24 <__aeabi_uidiv+0x30>
   210b2:	4678      	mov	r0, pc
   210b4:	2300      	movs	r3, #0
   210b6:	001a      	movs	r2, r3
   210b8:	0019      	movs	r1, r3
   210ba:	f011 fabd 	bl	32638 <err_fatal_handler>
   210be:	9801      	ldr	r0, [sp, #4]
   210c0:	1c40      	adds	r0, r0, #1
   210c2:	9001      	str	r0, [sp, #4]
   210c4:	68a1      	ldr	r1, [r4, #8]
   210c6:	6909      	ldr	r1, [r1, #16]
   210c8:	4281      	cmp	r1, r0
   210ca:	d8d9      	bhi.n	21080 <AxiPD_TargetInitDevice+0x94>
   210cc:	68a0      	ldr	r0, [r4, #8]
   210ce:	2500      	movs	r5, #0
   210d0:	6940      	ldr	r0, [r0, #20]
   210d2:	2800      	cmp	r0, #0
   210d4:	d914      	bls.n	21100 <AxiPD_TargetInitDevice+0x114>
   210d6:	002a      	movs	r2, r5
   210d8:	0020      	movs	r0, r4
   210da:	a901      	add	r1, sp, #4
   210dc:	f7ff fef6 	bl	20ecc <AxiPD_GetSlaveIndex>
   210e0:	6860      	ldr	r0, [r4, #4]
   210e2:	9901      	ldr	r1, [sp, #4]
   210e4:	aa02      	add	r2, sp, #8
   210e6:	f003 fccf 	bl	24a88 <HAL_axifab_GetArbitrationControl>
   210ea:	9607      	str	r6, [sp, #28]
   210ec:	6860      	ldr	r0, [r4, #4]
   210ee:	9901      	ldr	r1, [sp, #4]
   210f0:	aa02      	add	r2, sp, #8
   210f2:	f003 fd87 	bl	24c04 <HAL_axifab_ProgramArbitrationControl>
   210f6:	68a0      	ldr	r0, [r4, #8]
   210f8:	1c6d      	adds	r5, r5, #1
   210fa:	6940      	ldr	r0, [r0, #20]
   210fc:	42a8      	cmp	r0, r5
   210fe:	d8ea      	bhi.n	210d6 <AxiPD_TargetInitDevice+0xea>
   21100:	6820      	ldr	r0, [r4, #0]
   21102:	19c0      	adds	r0, r0, r7
   21104:	e000      	b.n	21108 <AxiPD_TargetInitDevice+0x11c>
   21106:	e004      	b.n	21112 <AxiPD_TargetInitDevice+0x126>
   21108:	d018      	beq.n	2113c <AxiPD_TargetInitDevice+0x150>
   2110a:	2801      	cmp	r0, #1
   2110c:	d01b      	beq.n	21146 <AxiPD_TargetInitDevice+0x15a>
   2110e:	2802      	cmp	r0, #2
   21110:	d005      	beq.n	2111e <AxiPD_TargetInitDevice+0x132>
   21112:	b00d      	add	sp, #52	; 0x34
   21114:	bcf0      	pop	{r4, r5, r6, r7}
   21116:	bc08      	pop	{r3}
   21118:	2000      	movs	r0, #0
   2111a:	43c0      	mvns	r0, r0
   2111c:	4718      	bx	r3
   2111e:	6860      	ldr	r0, [r4, #4]
   21120:	2102      	movs	r1, #2
   21122:	f003 fc97 	bl	24a54 <HAL_axifab_EnablePriority>
   21126:	6860      	ldr	r0, [r4, #4]
   21128:	2103      	movs	r1, #3
   2112a:	f003 fc93 	bl	24a54 <HAL_axifab_EnablePriority>
   2112e:	6860      	ldr	r0, [r4, #4]
   21130:	2104      	movs	r1, #4
   21132:	f003 fc8f 	bl	24a54 <HAL_axifab_EnablePriority>
   21136:	6860      	ldr	r0, [r4, #4]
   21138:	2105      	movs	r1, #5
   2113a:	e001      	b.n	21140 <AxiPD_TargetInitDevice+0x154>
   2113c:	6860      	ldr	r0, [r4, #4]
   2113e:	2100      	movs	r1, #0
   21140:	f003 fc88 	bl	24a54 <HAL_axifab_EnablePriority>
   21144:	e003      	b.n	2114e <AxiPD_TargetInitDevice+0x162>
   21146:	6860      	ldr	r0, [r4, #4]
   21148:	210b      	movs	r1, #11
   2114a:	f003 fc83 	bl	24a54 <HAL_axifab_EnablePriority>
   2114e:	b00d      	add	sp, #52	; 0x34
   21150:	bcf0      	pop	{r4, r5, r6, r7}
   21152:	bc08      	pop	{r3}
   21154:	2000      	movs	r0, #0
   21156:	4718      	bx	r3
   21158:	fdfffee1 	.word	0xfdfffee1
   2115c:	0003c9f4 	.word	0x0003c9f4
   21160:	0003ca24 	.word	0x0003ca24
   21164:	0003ca54 	.word	0x0003ca54
   21168:	20424349 	.word	0x20424349
   2116c:	76697244 	.word	0x76697244
   21170:	00007265 	.word	0x00007265

00021174 <Core_DALSYSAllocatorFcn>:
   21174:	b508      	push	{r3, lr}
   21176:	4669      	mov	r1, sp
   21178:	f000 fd08 	bl	21b8c <DALSYS_Malloc>
   2117c:	2800      	cmp	r0, #0
   2117e:	d003      	beq.n	21188 <Core_DALSYSAllocatorFcn+0x14>
   21180:	b001      	add	sp, #4
   21182:	bc08      	pop	{r3}
   21184:	2000      	movs	r0, #0
   21186:	4718      	bx	r3
   21188:	9800      	ldr	r0, [sp, #0]
   2118a:	b001      	add	sp, #4
   2118c:	bc08      	pop	{r3}
   2118e:	4718      	bx	r3

00021190 <Core_PoolAlloc>:
   21190:	b570      	push	{r4, r5, r6, lr}
   21192:	0004      	movs	r4, r0
   21194:	69c0      	ldr	r0, [r0, #28]
   21196:	f000 fd31 	bl	21bfc <DALSYS_SyncEnter>
   2119a:	68e5      	ldr	r5, [r4, #12]
   2119c:	2d00      	cmp	r5, #0
   2119e:	d001      	beq.n	211a4 <Core_PoolAlloc+0x14>
   211a0:	6828      	ldr	r0, [r5, #0]
   211a2:	60e0      	str	r0, [r4, #12]
   211a4:	69e0      	ldr	r0, [r4, #28]
   211a6:	f000 fd39 	bl	21c1c <DALSYS_SyncLeave>
   211aa:	2c00      	cmp	r4, #0
   211ac:	d107      	bne.n	211be <Core_PoolAlloc+0x2e>
   211ae:	f7ff fcb9 	bl	20b24 <__aeabi_uidiv+0x30>
   211b2:	4678      	mov	r0, pc
   211b4:	2300      	movs	r3, #0
   211b6:	001a      	movs	r2, r3
   211b8:	0019      	movs	r1, r3
   211ba:	f011 fa3d 	bl	32638 <err_fatal_handler>
   211be:	2d00      	cmp	r5, #0
   211c0:	d11a      	bne.n	211f8 <Core_PoolAlloc+0x68>
   211c2:	69a1      	ldr	r1, [r4, #24]
   211c4:	2900      	cmp	r1, #0
   211c6:	d017      	beq.n	211f8 <Core_PoolAlloc+0x68>
   211c8:	6866      	ldr	r6, [r4, #4]
   211ca:	2e00      	cmp	r6, #0
   211cc:	d014      	beq.n	211f8 <Core_PoolAlloc+0x68>
   211ce:	0030      	movs	r0, r6
   211d0:	f00d fef4 	bl	2efbc <__ARM_common_call_via_r1>
   211d4:	2800      	cmp	r0, #0
   211d6:	d00f      	beq.n	211f8 <Core_PoolAlloc+0x68>
   211d8:	0001      	movs	r1, r0
   211da:	0032      	movs	r2, r6
   211dc:	0020      	movs	r0, r4
   211de:	f000 f881 	bl	212e4 <Core_PoolFill>
   211e2:	69e0      	ldr	r0, [r4, #28]
   211e4:	f000 fd0a 	bl	21bfc <DALSYS_SyncEnter>
   211e8:	68e5      	ldr	r5, [r4, #12]
   211ea:	2d00      	cmp	r5, #0
   211ec:	d001      	beq.n	211f2 <Core_PoolAlloc+0x62>
   211ee:	6828      	ldr	r0, [r5, #0]
   211f0:	60e0      	str	r0, [r4, #12]
   211f2:	69e0      	ldr	r0, [r4, #28]
   211f4:	f000 fd12 	bl	21c1c <DALSYS_SyncLeave>
   211f8:	0028      	movs	r0, r5
   211fa:	bc70      	pop	{r4, r5, r6}
   211fc:	bc08      	pop	{r3}
   211fe:	4718      	bx	r3

00021200 <Core_PoolConfig>:
   21200:	b570      	push	{r4, r5, r6, lr}
   21202:	0005      	movs	r5, r0
   21204:	000c      	movs	r4, r1
   21206:	2800      	cmp	r0, #0
   21208:	d107      	bne.n	2121a <Core_PoolConfig+0x1a>
   2120a:	f7ff fc8b 	bl	20b24 <__aeabi_uidiv+0x30>
   2120e:	4678      	mov	r0, pc
   21210:	2300      	movs	r3, #0
   21212:	001a      	movs	r2, r3
   21214:	0019      	movs	r1, r3
   21216:	f011 fa0f 	bl	32638 <err_fatal_handler>
   2121a:	2c00      	cmp	r4, #0
   2121c:	d107      	bne.n	2122e <Core_PoolConfig+0x2e>
   2121e:	f7ff fc81 	bl	20b24 <__aeabi_uidiv+0x30>
   21222:	4678      	mov	r0, pc
   21224:	2300      	movs	r3, #0
   21226:	001a      	movs	r2, r3
   21228:	0019      	movs	r1, r3
   2122a:	f011 fa05 	bl	32638 <err_fatal_handler>
   2122e:	6822      	ldr	r2, [r4, #0]
   21230:	6861      	ldr	r1, [r4, #4]
   21232:	0028      	movs	r0, r5
   21234:	f000 f81a 	bl	2126c <Core_PoolCreate>
   21238:	68a4      	ldr	r4, [r4, #8]
   2123a:	2d00      	cmp	r5, #0
   2123c:	d107      	bne.n	2124e <Core_PoolConfig+0x4e>
   2123e:	f7ff fc71 	bl	20b24 <__aeabi_uidiv+0x30>
   21242:	4678      	mov	r0, pc
   21244:	2300      	movs	r3, #0
   21246:	001a      	movs	r2, r3
   21248:	0019      	movs	r1, r3
   2124a:	f011 f9f5 	bl	32638 <err_fatal_handler>
   2124e:	2c00      	cmp	r4, #0
   21250:	d007      	beq.n	21262 <Core_PoolConfig+0x62>
   21252:	6929      	ldr	r1, [r5, #16]
   21254:	2004      	movs	r0, #4
   21256:	2904      	cmp	r1, #4
   21258:	d900      	bls.n	2125c <Core_PoolConfig+0x5c>
   2125a:	0008      	movs	r0, r1
   2125c:	4360      	muls	r0, r4
   2125e:	3008      	adds	r0, #8
   21260:	e000      	b.n	21264 <Core_PoolConfig+0x64>
   21262:	2000      	movs	r0, #0
   21264:	6068      	str	r0, [r5, #4]
   21266:	bc70      	pop	{r4, r5, r6}
   21268:	bc08      	pop	{r3}
   2126a:	4718      	bx	r3

0002126c <Core_PoolCreate>:
   2126c:	b5f8      	push	{r3, r4, r5, r6, r7, lr}
   2126e:	0004      	movs	r4, r0
   21270:	0016      	movs	r6, r2
   21272:	2900      	cmp	r1, #0
   21274:	d006      	beq.n	21284 <Core_PoolCreate+0x18>
   21276:	2504      	movs	r5, #4
   21278:	2e04      	cmp	r6, #4
   2127a:	d900      	bls.n	2127e <Core_PoolCreate+0x12>
   2127c:	0015      	movs	r5, r2
   2127e:	434d      	muls	r5, r1
   21280:	3508      	adds	r5, #8
   21282:	e000      	b.n	21286 <Core_PoolCreate+0x1a>
   21284:	2500      	movs	r5, #0
   21286:	2c00      	cmp	r4, #0
   21288:	d107      	bne.n	2129a <Core_PoolCreate+0x2e>
   2128a:	f7ff fc4b 	bl	20b24 <__aeabi_uidiv+0x30>
   2128e:	4678      	mov	r0, pc
   21290:	2300      	movs	r3, #0
   21292:	001a      	movs	r2, r3
   21294:	0019      	movs	r1, r3
   21296:	f011 f9cf 	bl	32638 <err_fatal_handler>
   2129a:	0028      	movs	r0, r5
   2129c:	4669      	mov	r1, sp
   2129e:	f000 fc75 	bl	21b8c <DALSYS_Malloc>
   212a2:	2800      	cmp	r0, #0
   212a4:	d007      	beq.n	212b6 <Core_PoolCreate+0x4a>
   212a6:	f7ff fc3d 	bl	20b24 <__aeabi_uidiv+0x30>
   212aa:	4678      	mov	r0, pc
   212ac:	2300      	movs	r3, #0
   212ae:	001a      	movs	r2, r3
   212b0:	0019      	movs	r1, r3
   212b2:	f011 f9c1 	bl	32638 <err_fatal_handler>
   212b6:	9a00      	ldr	r2, [sp, #0]
   212b8:	002b      	movs	r3, r5
   212ba:	0031      	movs	r1, r6
   212bc:	0020      	movs	r0, r4
   212be:	f000 f893 	bl	213e8 <Core_PoolInit>
   212c2:	4d07      	ldr	r5, [pc, #28]	; (212e0 <Core_PoolCreate+0x74>)
   212c4:	2c00      	cmp	r4, #0
   212c6:	d107      	bne.n	212d8 <Core_PoolCreate+0x6c>
   212c8:	f7ff fc2c 	bl	20b24 <__aeabi_uidiv+0x30>
   212cc:	4678      	mov	r0, pc
   212ce:	2300      	movs	r3, #0
   212d0:	001a      	movs	r2, r3
   212d2:	0019      	movs	r1, r3
   212d4:	f011 f9b0 	bl	32638 <err_fatal_handler>
   212d8:	61a5      	str	r5, [r4, #24]
   212da:	bcf8      	pop	{r3, r4, r5, r6, r7}
   212dc:	bc08      	pop	{r3}
   212de:	4718      	bx	r3
   212e0:	00021175 	.word	0x00021175

000212e4 <Core_PoolFill>:
   212e4:	b537      	push	{r0, r1, r2, r4, r5, lr}
   212e6:	0004      	movs	r4, r0
   212e8:	9802      	ldr	r0, [sp, #8]
   212ea:	000d      	movs	r5, r1
   212ec:	2808      	cmp	r0, #8
   212ee:	d207      	bcs.n	21300 <Core_PoolFill+0x1c>
   212f0:	f7ff fc18 	bl	20b24 <__aeabi_uidiv+0x30>
   212f4:	4678      	mov	r0, pc
   212f6:	2300      	movs	r3, #0
   212f8:	001a      	movs	r2, r3
   212fa:	0019      	movs	r1, r3
   212fc:	f011 f99c 	bl	32638 <err_fatal_handler>
   21300:	9802      	ldr	r0, [sp, #8]
   21302:	6068      	str	r0, [r5, #4]
   21304:	69e0      	ldr	r0, [r4, #28]
   21306:	f000 fc79 	bl	21bfc <DALSYS_SyncEnter>
   2130a:	6820      	ldr	r0, [r4, #0]
   2130c:	6028      	str	r0, [r5, #0]
   2130e:	6025      	str	r5, [r4, #0]
   21310:	68a0      	ldr	r0, [r4, #8]
   21312:	1c40      	adds	r0, r0, #1
   21314:	60a0      	str	r0, [r4, #8]
   21316:	69e0      	ldr	r0, [r4, #28]
   21318:	f000 fc80 	bl	21c1c <DALSYS_SyncLeave>
   2131c:	9802      	ldr	r0, [sp, #8]
   2131e:	3808      	subs	r0, #8
   21320:	3508      	adds	r5, #8
   21322:	9002      	str	r0, [sp, #8]
   21324:	d107      	bne.n	21336 <Core_PoolFill+0x52>
   21326:	f7ff fbfd 	bl	20b24 <__aeabi_uidiv+0x30>
   2132a:	4678      	mov	r0, pc
   2132c:	2300      	movs	r3, #0
   2132e:	001a      	movs	r2, r3
   21330:	0019      	movs	r1, r3
   21332:	f011 f981 	bl	32638 <err_fatal_handler>
   21336:	6920      	ldr	r0, [r4, #16]
   21338:	9902      	ldr	r1, [sp, #8]
   2133a:	4288      	cmp	r0, r1
   2133c:	d823      	bhi.n	21386 <Core_PoolFill+0xa2>
   2133e:	2d00      	cmp	r5, #0
   21340:	d107      	bne.n	21352 <Core_PoolFill+0x6e>
   21342:	f7ff fbef 	bl	20b24 <__aeabi_uidiv+0x30>
   21346:	4678      	mov	r0, pc
   21348:	2300      	movs	r3, #0
   2134a:	001a      	movs	r2, r3
   2134c:	0019      	movs	r1, r3
   2134e:	f011 f973 	bl	32638 <err_fatal_handler>
   21352:	69e0      	ldr	r0, [r4, #28]
   21354:	f000 fc52 	bl	21bfc <DALSYS_SyncEnter>
   21358:	68e1      	ldr	r1, [r4, #12]
   2135a:	6029      	str	r1, [r5, #0]
   2135c:	60e5      	str	r5, [r4, #12]
   2135e:	69e0      	ldr	r0, [r4, #28]
   21360:	f000 fc5c 	bl	21c1c <DALSYS_SyncLeave>
   21364:	69e0      	ldr	r0, [r4, #28]
   21366:	f000 fc49 	bl	21bfc <DALSYS_SyncEnter>
   2136a:	6960      	ldr	r0, [r4, #20]
   2136c:	1c40      	adds	r0, r0, #1
   2136e:	6160      	str	r0, [r4, #20]
   21370:	69e0      	ldr	r0, [r4, #28]
   21372:	f000 fc53 	bl	21c1c <DALSYS_SyncLeave>
   21376:	6920      	ldr	r0, [r4, #16]
   21378:	9902      	ldr	r1, [sp, #8]
   2137a:	1945      	adds	r5, r0, r5
   2137c:	1a08      	subs	r0, r1, r0
   2137e:	9002      	str	r0, [sp, #8]
   21380:	6921      	ldr	r1, [r4, #16]
   21382:	4281      	cmp	r1, r0
   21384:	d9db      	bls.n	2133e <Core_PoolFill+0x5a>
   21386:	b003      	add	sp, #12
   21388:	bc30      	pop	{r4, r5}
   2138a:	bc08      	pop	{r3}
   2138c:	4718      	bx	r3

0002138e <Core_PoolFree>:
   2138e:	b570      	push	{r4, r5, r6, lr}
   21390:	0004      	movs	r4, r0
   21392:	000d      	movs	r5, r1
   21394:	2800      	cmp	r0, #0
   21396:	d107      	bne.n	213a8 <Core_PoolFree+0x1a>
   21398:	f7ff fbc4 	bl	20b24 <__aeabi_uidiv+0x30>
   2139c:	4678      	mov	r0, pc
   2139e:	2300      	movs	r3, #0
   213a0:	001a      	movs	r2, r3
   213a2:	0019      	movs	r1, r3
   213a4:	f011 f948 	bl	32638 <err_fatal_handler>
   213a8:	2d00      	cmp	r5, #0
   213aa:	d107      	bne.n	213bc <Core_PoolFree+0x2e>
   213ac:	f7ff fbba 	bl	20b24 <__aeabi_uidiv+0x30>
   213b0:	4678      	mov	r0, pc
   213b2:	2300      	movs	r3, #0
   213b4:	001a      	movs	r2, r3
   213b6:	0019      	movs	r1, r3
   213b8:	f011 f93e 	bl	32638 <err_fatal_handler>
   213bc:	2d00      	cmp	r5, #0
   213be:	d107      	bne.n	213d0 <Core_PoolFree+0x42>
   213c0:	f7ff fbb0 	bl	20b24 <__aeabi_uidiv+0x30>
   213c4:	4678      	mov	r0, pc
   213c6:	2300      	movs	r3, #0
   213c8:	001a      	movs	r2, r3
   213ca:	0019      	movs	r1, r3
   213cc:	f011 f934 	bl	32638 <err_fatal_handler>
   213d0:	69e0      	ldr	r0, [r4, #28]
   213d2:	f000 fc13 	bl	21bfc <DALSYS_SyncEnter>
   213d6:	68e0      	ldr	r0, [r4, #12]
   213d8:	6028      	str	r0, [r5, #0]
   213da:	60e5      	str	r5, [r4, #12]
   213dc:	69e0      	ldr	r0, [r4, #28]
   213de:	f000 fc1d 	bl	21c1c <DALSYS_SyncLeave>
   213e2:	bc70      	pop	{r4, r5, r6}
   213e4:	bc08      	pop	{r3}
   213e6:	4718      	bx	r3

000213e8 <Core_PoolInit>:
   213e8:	b5f8      	push	{r3, r4, r5, r6, r7, lr}
   213ea:	0004      	movs	r4, r0
   213ec:	000e      	movs	r6, r1
   213ee:	0017      	movs	r7, r2
   213f0:	001d      	movs	r5, r3
   213f2:	2800      	cmp	r0, #0
   213f4:	d107      	bne.n	21406 <Core_PoolInit+0x1e>
   213f6:	f7ff fb95 	bl	20b24 <__aeabi_uidiv+0x30>
   213fa:	4678      	mov	r0, pc
   213fc:	2300      	movs	r3, #0
   213fe:	001a      	movs	r2, r3
   21400:	0019      	movs	r1, r3
   21402:	f011 f919 	bl	32638 <err_fatal_handler>
   21406:	2000      	movs	r0, #0
   21408:	6020      	str	r0, [r4, #0]
   2140a:	6060      	str	r0, [r4, #4]
   2140c:	60a0      	str	r0, [r4, #8]
   2140e:	60e0      	str	r0, [r4, #12]
   21410:	6120      	str	r0, [r4, #16]
   21412:	6160      	str	r0, [r4, #20]
   21414:	61a0      	str	r0, [r4, #24]
   21416:	61e0      	str	r0, [r4, #28]
   21418:	2004      	movs	r0, #4
   2141a:	2e04      	cmp	r6, #4
   2141c:	d900      	bls.n	21420 <Core_PoolInit+0x38>
   2141e:	0030      	movs	r0, r6
   21420:	0021      	movs	r1, r4
   21422:	6120      	str	r0, [r4, #16]
   21424:	2200      	movs	r2, #0
   21426:	311c      	adds	r1, #28
   21428:	2010      	movs	r0, #16
   2142a:	f000 fbd5 	bl	21bd8 <DALSYS_SyncCreate>
   2142e:	2800      	cmp	r0, #0
   21430:	d007      	beq.n	21442 <Core_PoolInit+0x5a>
   21432:	f7ff fb77 	bl	20b24 <__aeabi_uidiv+0x30>
   21436:	4678      	mov	r0, pc
   21438:	2300      	movs	r3, #0
   2143a:	001a      	movs	r2, r3
   2143c:	0019      	movs	r1, r3
   2143e:	f011 f8fb 	bl	32638 <err_fatal_handler>
   21442:	2d00      	cmp	r5, #0
   21444:	d00f      	beq.n	21466 <Core_PoolInit+0x7e>
   21446:	2f00      	cmp	r7, #0
   21448:	d107      	bne.n	2145a <Core_PoolInit+0x72>
   2144a:	f7ff fb6b 	bl	20b24 <__aeabi_uidiv+0x30>
   2144e:	4678      	mov	r0, pc
   21450:	2300      	movs	r3, #0
   21452:	001a      	movs	r2, r3
   21454:	0019      	movs	r1, r3
   21456:	f011 f8ef 	bl	32638 <err_fatal_handler>
   2145a:	002a      	movs	r2, r5
   2145c:	0039      	movs	r1, r7
   2145e:	0020      	movs	r0, r4
   21460:	6065      	str	r5, [r4, #4]
   21462:	f7ff ff3f 	bl	212e4 <Core_PoolFill>
   21466:	bcf8      	pop	{r3, r4, r5, r6, r7}
   21468:	bc08      	pop	{r3}
   2146a:	4718      	bx	r3

0002146c <Core_PoolSetAllocationSize>:
   2146c:	b570      	push	{r4, r5, r6, lr}
   2146e:	0004      	movs	r4, r0
   21470:	000d      	movs	r5, r1
   21472:	2800      	cmp	r0, #0
   21474:	d107      	bne.n	21486 <Core_PoolSetAllocationSize+0x1a>
   21476:	f7ff fb55 	bl	20b24 <__aeabi_uidiv+0x30>
   2147a:	4678      	mov	r0, pc
   2147c:	2300      	movs	r3, #0
   2147e:	001a      	movs	r2, r3
   21480:	0019      	movs	r1, r3
   21482:	f011 f8d9 	bl	32638 <err_fatal_handler>
   21486:	2d00      	cmp	r5, #0
   21488:	d007      	beq.n	2149a <Core_PoolSetAllocationSize+0x2e>
   2148a:	6922      	ldr	r2, [r4, #16]
   2148c:	2004      	movs	r0, #4
   2148e:	2a04      	cmp	r2, #4
   21490:	d900      	bls.n	21494 <Core_PoolSetAllocationSize+0x28>
   21492:	0010      	movs	r0, r2
   21494:	4368      	muls	r0, r5
   21496:	3008      	adds	r0, #8
   21498:	e000      	b.n	2149c <Core_PoolSetAllocationSize+0x30>
   2149a:	2000      	movs	r0, #0
   2149c:	6060      	str	r0, [r4, #4]
   2149e:	bc70      	pop	{r4, r5, r6}
   214a0:	bc08      	pop	{r3}
   214a2:	4718      	bx	r3

000214a4 <Core_WorkElementProcess>:
   214a4:	b538      	push	{r3, r4, r5, lr}
   214a6:	0004      	movs	r4, r0
   214a8:	6840      	ldr	r0, [r0, #4]
   214aa:	2500      	movs	r5, #0
   214ac:	43ed      	mvns	r5, r5
   214ae:	2800      	cmp	r0, #0
   214b0:	d002      	beq.n	214b8 <Core_WorkElementProcess+0x14>
   214b2:	68a0      	ldr	r0, [r4, #8]
   214b4:	2800      	cmp	r0, #0
   214b6:	d107      	bne.n	214c8 <Core_WorkElementProcess+0x24>
   214b8:	f7ff fb34 	bl	20b24 <__aeabi_uidiv+0x30>
   214bc:	4678      	mov	r0, pc
   214be:	2300      	movs	r3, #0
   214c0:	001a      	movs	r2, r3
   214c2:	0019      	movs	r1, r3
   214c4:	f011 f8b8 	bl	32638 <err_fatal_handler>
   214c8:	6862      	ldr	r2, [r4, #4]
   214ca:	0020      	movs	r0, r4
   214cc:	4669      	mov	r1, sp
   214ce:	f00d fd76 	bl	2efbe <__ARM_common_call_via_r2>
   214d2:	2800      	cmp	r0, #0
   214d4:	d003      	beq.n	214de <Core_WorkElementProcess+0x3a>
   214d6:	0028      	movs	r0, r5
   214d8:	bc38      	pop	{r3, r4, r5}
   214da:	bc08      	pop	{r3}
   214dc:	4718      	bx	r3
   214de:	68a1      	ldr	r1, [r4, #8]
   214e0:	9800      	ldr	r0, [sp, #0]
   214e2:	f00d fd6b 	bl	2efbc <__ARM_common_call_via_r1>
   214e6:	68e2      	ldr	r2, [r4, #12]
   214e8:	2a00      	cmp	r2, #0
   214ea:	d003      	beq.n	214f4 <Core_WorkElementProcess+0x50>
   214ec:	9900      	ldr	r1, [sp, #0]
   214ee:	0020      	movs	r0, r4
   214f0:	f00d fd65 	bl	2efbe <__ARM_common_call_via_r2>
   214f4:	bc38      	pop	{r3, r4, r5}
   214f6:	bc08      	pop	{r3}
   214f8:	2000      	movs	r0, #0
   214fa:	4718      	bx	r3

000214fc <Core_WorkQueueAlloc>:
   214fc:	b570      	push	{r4, r5, r6, lr}
   214fe:	000c      	movs	r4, r1
   21500:	2100      	movs	r1, #0
   21502:	1e4d      	subs	r5, r1, #1
   21504:	2800      	cmp	r0, #0
   21506:	6021      	str	r1, [r4, #0]
   21508:	d00d      	beq.n	21526 <Core_WorkQueueAlloc+0x2a>
   2150a:	69c0      	ldr	r0, [r0, #28]
   2150c:	2800      	cmp	r0, #0
   2150e:	d00a      	beq.n	21526 <Core_WorkQueueAlloc+0x2a>
   21510:	3008      	adds	r0, #8
   21512:	f7ff fe3d 	bl	21190 <Core_PoolAlloc>
   21516:	2800      	cmp	r0, #0
   21518:	d005      	beq.n	21526 <Core_WorkQueueAlloc+0x2a>
   2151a:	1d00      	adds	r0, r0, #4
   2151c:	6020      	str	r0, [r4, #0]
   2151e:	bc70      	pop	{r4, r5, r6}
   21520:	bc08      	pop	{r3}
   21522:	2000      	movs	r0, #0
   21524:	4718      	bx	r3
   21526:	0028      	movs	r0, r5
   21528:	bc70      	pop	{r4, r5, r6}
   2152a:	bc08      	pop	{r3}
   2152c:	4718      	bx	r3
	...

00021530 <Core_WorkQueueCreate>:
   21530:	b5ff      	push	{r0, r1, r2, r3, r4, r5, r6, r7, lr}
   21532:	0005      	movs	r5, r0
   21534:	0001      	movs	r1, r0
   21536:	b081      	sub	sp, #4
   21538:	9e0a      	ldr	r6, [sp, #40]	; 0x28
   2153a:	2020      	movs	r0, #32
   2153c:	f000 fb26 	bl	21b8c <DALSYS_Malloc>
   21540:	682c      	ldr	r4, [r5, #0]
   21542:	0007      	movs	r7, r0
   21544:	d124      	bne.n	21590 <Core_WorkQueueCreate+0x60>
   21546:	2c00      	cmp	r4, #0
   21548:	d022      	beq.n	21590 <Core_WorkQueueCreate+0x60>
   2154a:	6120      	str	r0, [r4, #16]
   2154c:	6160      	str	r0, [r4, #20]
   2154e:	61a0      	str	r0, [r4, #24]
   21550:	61e0      	str	r0, [r4, #28]
   21552:	481f      	ldr	r0, [pc, #124]	; (215d0 <Core_WorkQueueCreate+0xa0>)
   21554:	0021      	movs	r1, r4
   21556:	6020      	str	r0, [r4, #0]
   21558:	481e      	ldr	r0, [pc, #120]	; (215d4 <Core_WorkQueueCreate+0xa4>)
   2155a:	2200      	movs	r2, #0
   2155c:	6060      	str	r0, [r4, #4]
   2155e:	9802      	ldr	r0, [sp, #8]
   21560:	3110      	adds	r1, #16
   21562:	60a0      	str	r0, [r4, #8]
   21564:	481c      	ldr	r0, [pc, #112]	; (215d8 <Core_WorkQueueCreate+0xa8>)
   21566:	60e0      	str	r0, [r4, #12]
   21568:	2010      	movs	r0, #16
   2156a:	f000 fb35 	bl	21bd8 <DALSYS_SyncCreate>
   2156e:	0007      	movs	r7, r0
   21570:	d109      	bne.n	21586 <Core_WorkQueueCreate+0x56>
   21572:	0021      	movs	r1, r4
   21574:	311c      	adds	r1, #28
   21576:	202c      	movs	r0, #44	; 0x2c
   21578:	f000 fb08 	bl	21b8c <DALSYS_Malloc>
   2157c:	0007      	movs	r7, r0
   2157e:	d00c      	beq.n	2159a <Core_WorkQueueCreate+0x6a>
   21580:	6920      	ldr	r0, [r4, #16]
   21582:	f000 f9a9 	bl	218d8 <DALSYS_DestroyObject>
   21586:	0020      	movs	r0, r4
   21588:	f000 fab0 	bl	21aec <DALSYS_Free>
   2158c:	2000      	movs	r0, #0
   2158e:	6028      	str	r0, [r5, #0]
   21590:	0038      	movs	r0, r7
   21592:	b005      	add	sp, #20
   21594:	bcf0      	pop	{r4, r5, r6, r7}
   21596:	bc08      	pop	{r3}
   21598:	4718      	bx	r3
   2159a:	69e5      	ldr	r5, [r4, #28]
   2159c:	212c      	movs	r1, #44	; 0x2c
   2159e:	0028      	movs	r0, r5
   215a0:	f7ff f8c0 	bl	20724 <__aeabi_memset+0x10>
   215a4:	6920      	ldr	r0, [r4, #16]
   215a6:	1d36      	adds	r6, r6, #4
   215a8:	f000 fb28 	bl	21bfc <DALSYS_SyncEnter>
   215ac:	3508      	adds	r5, #8
   215ae:	9903      	ldr	r1, [sp, #12]
   215b0:	0032      	movs	r2, r6
   215b2:	0028      	movs	r0, r5
   215b4:	f7ff fe5a 	bl	2126c <Core_PoolCreate>
   215b8:	9804      	ldr	r0, [sp, #16]
   215ba:	2800      	cmp	r0, #0
   215bc:	d003      	beq.n	215c6 <Core_WorkQueueCreate+0x96>
   215be:	0001      	movs	r1, r0
   215c0:	0028      	movs	r0, r5
   215c2:	f7ff ff53 	bl	2146c <Core_PoolSetAllocationSize>
   215c6:	6920      	ldr	r0, [r4, #16]
   215c8:	f000 fb28 	bl	21c1c <DALSYS_SyncLeave>
   215cc:	e7e0      	b.n	21590 <Core_WorkQueueCreate+0x60>
   215ce:	0000      	.short	0x0000
   215d0:	00021701 	.word	0x00021701
   215d4:	00021607 	.word	0x00021607
   215d8:	000215dd 	.word	0x000215dd

000215dc <Core_WorkQueueFree>:
   215dc:	b510      	push	{r4, lr}
   215de:	2800      	cmp	r0, #0
   215e0:	d00c      	beq.n	215fc <Core_WorkQueueFree+0x20>
   215e2:	69c0      	ldr	r0, [r0, #28]
   215e4:	2800      	cmp	r0, #0
   215e6:	d009      	beq.n	215fc <Core_WorkQueueFree+0x20>
   215e8:	2900      	cmp	r1, #0
   215ea:	d007      	beq.n	215fc <Core_WorkQueueFree+0x20>
   215ec:	1f09      	subs	r1, r1, #4
   215ee:	3008      	adds	r0, #8
   215f0:	f7ff fecd 	bl	2138e <Core_PoolFree>
   215f4:	bc10      	pop	{r4}
   215f6:	bc08      	pop	{r3}
   215f8:	2000      	movs	r0, #0
   215fa:	4718      	bx	r3
   215fc:	bc10      	pop	{r4}
   215fe:	bc08      	pop	{r3}
   21600:	2000      	movs	r0, #0
   21602:	43c0      	mvns	r0, r0
   21604:	4718      	bx	r3

00021606 <Core_WorkQueueGet>:
   21606:	b5f8      	push	{r3, r4, r5, r6, r7, lr}
   21608:	0005      	movs	r5, r0
   2160a:	000e      	movs	r6, r1
   2160c:	2700      	movs	r7, #0
   2160e:	2900      	cmp	r1, #0
   21610:	d014      	beq.n	2163c <Core_WorkQueueGet+0x36>
   21612:	2d00      	cmp	r5, #0
   21614:	d017      	beq.n	21646 <Core_WorkQueueGet+0x40>
   21616:	69ec      	ldr	r4, [r5, #28]
   21618:	2c00      	cmp	r4, #0
   2161a:	d014      	beq.n	21646 <Core_WorkQueueGet+0x40>
   2161c:	6928      	ldr	r0, [r5, #16]
   2161e:	f000 faed 	bl	21bfc <DALSYS_SyncEnter>
   21622:	6820      	ldr	r0, [r4, #0]
   21624:	2800      	cmp	r0, #0
   21626:	d018      	beq.n	2165a <Core_WorkQueueGet+0x54>
   21628:	6aa1      	ldr	r1, [r4, #40]	; 0x28
   2162a:	1e49      	subs	r1, r1, #1
   2162c:	62a1      	str	r1, [r4, #40]	; 0x28
   2162e:	1d01      	adds	r1, r0, #4
   21630:	6031      	str	r1, [r6, #0]
   21632:	6800      	ldr	r0, [r0, #0]
   21634:	2800      	cmp	r0, #0
   21636:	d00c      	beq.n	21652 <Core_WorkQueueGet+0x4c>
   21638:	6020      	str	r0, [r4, #0]
   2163a:	e011      	b.n	21660 <Core_WorkQueueGet+0x5a>
   2163c:	bcf8      	pop	{r3, r4, r5, r6, r7}
   2163e:	bc08      	pop	{r3}
   21640:	2000      	movs	r0, #0
   21642:	43c0      	mvns	r0, r0
   21644:	4718      	bx	r3
   21646:	2000      	movs	r0, #0
   21648:	6008      	str	r0, [r1, #0]
   2164a:	bcf8      	pop	{r3, r4, r5, r6, r7}
   2164c:	bc08      	pop	{r3}
   2164e:	1e40      	subs	r0, r0, #1
   21650:	4718      	bx	r3
   21652:	2000      	movs	r0, #0
   21654:	6020      	str	r0, [r4, #0]
   21656:	6060      	str	r0, [r4, #4]
   21658:	e002      	b.n	21660 <Core_WorkQueueGet+0x5a>
   2165a:	2000      	movs	r0, #0
   2165c:	1e47      	subs	r7, r0, #1
   2165e:	6030      	str	r0, [r6, #0]
   21660:	6928      	ldr	r0, [r5, #16]
   21662:	f000 fadb 	bl	21c1c <DALSYS_SyncLeave>
   21666:	0038      	movs	r0, r7
   21668:	bcf8      	pop	{r3, r4, r5, r6, r7}
   2166a:	bc08      	pop	{r3}
   2166c:	4718      	bx	r3

0002166e <Core_WorkQueueInsert>:
   2166e:	b5f7      	push	{r0, r1, r2, r4, r5, r6, r7, lr}
   21670:	0006      	movs	r6, r0
   21672:	000d      	movs	r5, r1
   21674:	2700      	movs	r7, #0
   21676:	2800      	cmp	r0, #0
   21678:	b082      	sub	sp, #8
   2167a:	d016      	beq.n	216aa <Core_WorkQueueInsert+0x3c>
   2167c:	69f4      	ldr	r4, [r6, #28]
   2167e:	2c00      	cmp	r4, #0
   21680:	d013      	beq.n	216aa <Core_WorkQueueInsert+0x3c>
   21682:	2d00      	cmp	r5, #0
   21684:	d011      	beq.n	216aa <Core_WorkQueueInsert+0x3c>
   21686:	6930      	ldr	r0, [r6, #16]
   21688:	f000 fab8 	bl	21bfc <DALSYS_SyncEnter>
   2168c:	6aa0      	ldr	r0, [r4, #40]	; 0x28
   2168e:	1f2d      	subs	r5, r5, #4
   21690:	1c40      	adds	r0, r0, #1
   21692:	2100      	movs	r1, #0
   21694:	62a0      	str	r0, [r4, #40]	; 0x28
   21696:	6029      	str	r1, [r5, #0]
   21698:	6860      	ldr	r0, [r4, #4]
   2169a:	2800      	cmp	r0, #0
   2169c:	d00f      	beq.n	216be <Core_WorkQueueInsert+0x50>
   2169e:	9904      	ldr	r1, [sp, #16]
   216a0:	2900      	cmp	r1, #0
   216a2:	d008      	beq.n	216b6 <Core_WorkQueueInsert+0x48>
   216a4:	6005      	str	r5, [r0, #0]
   216a6:	6065      	str	r5, [r4, #4]
   216a8:	e019      	b.n	216de <Core_WorkQueueInsert+0x70>
   216aa:	b005      	add	sp, #20
   216ac:	bcf0      	pop	{r4, r5, r6, r7}
   216ae:	bc08      	pop	{r3}
   216b0:	2000      	movs	r0, #0
   216b2:	43c0      	mvns	r0, r0
   216b4:	4718      	bx	r3
   216b6:	6820      	ldr	r0, [r4, #0]
   216b8:	6028      	str	r0, [r5, #0]
   216ba:	6025      	str	r5, [r4, #0]
   216bc:	e00f      	b.n	216de <Core_WorkQueueInsert+0x70>
   216be:	6065      	str	r5, [r4, #4]
   216c0:	6025      	str	r5, [r4, #0]
   216c2:	6970      	ldr	r0, [r6, #20]
   216c4:	2800      	cmp	r0, #0
   216c6:	d00a      	beq.n	216de <Core_WorkQueueInsert+0x70>
   216c8:	6880      	ldr	r0, [r0, #8]
   216ca:	2800      	cmp	r0, #0
   216cc:	d007      	beq.n	216de <Core_WorkQueueInsert+0x70>
   216ce:	9100      	str	r1, [sp, #0]
   216d0:	2300      	movs	r3, #0
   216d2:	21ff      	movs	r1, #255	; 0xff
   216d4:	001a      	movs	r2, r3
   216d6:	3101      	adds	r1, #1
   216d8:	f000 f9bc 	bl	21a54 <DALSYS_EventCtrlEx>
   216dc:	0007      	movs	r7, r0
   216de:	6930      	ldr	r0, [r6, #16]
   216e0:	f000 fa9c 	bl	21c1c <DALSYS_SyncLeave>
   216e4:	0038      	movs	r0, r7
   216e6:	b005      	add	sp, #20
   216e8:	bcf0      	pop	{r4, r5, r6, r7}
   216ea:	bc08      	pop	{r3}
   216ec:	4718      	bx	r3

000216ee <Core_WorkQueueLength>:
   216ee:	2800      	cmp	r0, #0
   216f0:	d004      	beq.n	216fc <Core_WorkQueueLength+0xe>
   216f2:	69c0      	ldr	r0, [r0, #28]
   216f4:	2800      	cmp	r0, #0
   216f6:	d001      	beq.n	216fc <Core_WorkQueueLength+0xe>
   216f8:	6a80      	ldr	r0, [r0, #40]	; 0x28
   216fa:	4770      	bx	lr
   216fc:	2001      	movs	r0, #1
   216fe:	4770      	bx	lr

00021700 <Core_WorkQueuePut>:
   21700:	b510      	push	{r4, lr}
   21702:	2201      	movs	r2, #1
   21704:	f7ff ffb3 	bl	2166e <Core_WorkQueueInsert>
   21708:	bc10      	pop	{r4}
   2170a:	bc08      	pop	{r3}
   2170c:	4718      	bx	r3
	...

00021710 <DALHeap_Free>:
   21710:	2900      	cmp	r1, #0
   21712:	d03a      	beq.n	2178a <DALHeap_Free+0x7a>
   21714:	b570      	push	{r4, r5, r6, lr}
   21716:	0006      	movs	r6, r0
   21718:	6840      	ldr	r0, [r0, #4]
   2171a:	000c      	movs	r4, r1
   2171c:	f000 fa6e 	bl	21bfc <DALSYS_SyncEnter>
   21720:	0021      	movs	r1, r4
   21722:	3940      	subs	r1, #64	; 0x40
   21724:	6b88      	ldr	r0, [r1, #56]	; 0x38
   21726:	4a19      	ldr	r2, [pc, #100]	; (2178c <DALHeap_Free+0x7c>)
   21728:	0840      	lsrs	r0, r0, #1
   2172a:	6893      	ldr	r3, [r2, #8]
   2172c:	0040      	lsls	r0, r0, #1
   2172e:	1b05      	subs	r5, r0, r4
   21730:	195b      	adds	r3, r3, r5
   21732:	6093      	str	r3, [r2, #8]
   21734:	68d3      	ldr	r3, [r2, #12]
   21736:	1c5b      	adds	r3, r3, #1
   21738:	60d3      	str	r3, [r2, #12]
   2173a:	6388      	str	r0, [r1, #56]	; 0x38
   2173c:	0840      	lsrs	r0, r0, #1
   2173e:	0040      	lsls	r0, r0, #1
   21740:	6800      	ldr	r0, [r0, #0]
   21742:	3c08      	subs	r4, #8
   21744:	0025      	movs	r5, r4
   21746:	07c0      	lsls	r0, r0, #31
   21748:	d108      	bne.n	2175c <DALHeap_Free+0x4c>
   2174a:	6828      	ldr	r0, [r5, #0]
   2174c:	0845      	lsrs	r5, r0, #1
   2174e:	006d      	lsls	r5, r5, #1
   21750:	6828      	ldr	r0, [r5, #0]
   21752:	0840      	lsrs	r0, r0, #1
   21754:	0040      	lsls	r0, r0, #1
   21756:	6800      	ldr	r0, [r0, #0]
   21758:	07c0      	lsls	r0, r0, #31
   2175a:	d0f6      	beq.n	2174a <DALHeap_Free+0x3a>
   2175c:	6860      	ldr	r0, [r4, #4]
   2175e:	6800      	ldr	r0, [r0, #0]
   21760:	07c0      	lsls	r0, r0, #31
   21762:	d104      	bne.n	2176e <DALHeap_Free+0x5e>
   21764:	6864      	ldr	r4, [r4, #4]
   21766:	6860      	ldr	r0, [r4, #4]
   21768:	6800      	ldr	r0, [r0, #0]
   2176a:	07c0      	lsls	r0, r0, #31
   2176c:	d0fa      	beq.n	21764 <DALHeap_Free+0x54>
   2176e:	6828      	ldr	r0, [r5, #0]
   21770:	6020      	str	r0, [r4, #0]
   21772:	6828      	ldr	r0, [r5, #0]
   21774:	6044      	str	r4, [r0, #4]
   21776:	6830      	ldr	r0, [r6, #0]
   21778:	42a0      	cmp	r0, r4
   2177a:	d900      	bls.n	2177e <DALHeap_Free+0x6e>
   2177c:	6034      	str	r4, [r6, #0]
   2177e:	6870      	ldr	r0, [r6, #4]
   21780:	f000 fa4c 	bl	21c1c <DALSYS_SyncLeave>
   21784:	bc70      	pop	{r4, r5, r6}
   21786:	bc08      	pop	{r3}
   21788:	4718      	bx	r3
   2178a:	4770      	bx	lr
   2178c:	0003e644 	.word	0x0003e644

00021790 <DALHeap_Init>:
   21790:	b510      	push	{r4, lr}
   21792:	4c11      	ldr	r4, [pc, #68]	; (217d8 <DALHeap_Init+0x48>)
   21794:	000b      	movs	r3, r1
   21796:	2100      	movs	r1, #0
   21798:	6021      	str	r1, [r4, #0]
   2179a:	6061      	str	r1, [r4, #4]
   2179c:	60a1      	str	r1, [r4, #8]
   2179e:	60e1      	str	r1, [r4, #12]
   217a0:	1e4c      	subs	r4, r1, #1
   217a2:	2800      	cmp	r0, #0
   217a4:	d014      	beq.n	217d0 <DALHeap_Init+0x40>
   217a6:	2b00      	cmp	r3, #0
   217a8:	d012      	beq.n	217d0 <DALHeap_Init+0x40>
   217aa:	2a10      	cmp	r2, #16
   217ac:	d310      	bcc.n	217d0 <DALHeap_Init+0x40>
   217ae:	1899      	adds	r1, r3, r2
   217b0:	3908      	subs	r1, #8
   217b2:	2201      	movs	r2, #1
   217b4:	c10c      	stmia	r1!, {r2, r3}
   217b6:	3908      	subs	r1, #8
   217b8:	6003      	str	r3, [r0, #0]
   217ba:	6019      	str	r1, [r3, #0]
   217bc:	6802      	ldr	r2, [r0, #0]
   217be:	6051      	str	r1, [r2, #4]
   217c0:	0002      	movs	r2, r0
   217c2:	1d01      	adds	r1, r0, #4
   217c4:	3208      	adds	r2, #8
   217c6:	2010      	movs	r0, #16
   217c8:	f000 fa06 	bl	21bd8 <DALSYS_SyncCreate>
   217cc:	2800      	cmp	r0, #0
   217ce:	d000      	beq.n	217d2 <DALHeap_Init+0x42>
   217d0:	0020      	movs	r0, r4
   217d2:	bc10      	pop	{r4}
   217d4:	bc08      	pop	{r3}
   217d6:	4718      	bx	r3
   217d8:	0003e644 	.word	0x0003e644

000217dc <DALHeap_Malloc>:
   217dc:	b5f8      	push	{r3, r4, r5, r6, r7, lr}
   217de:	0005      	movs	r5, r0
   217e0:	2700      	movs	r7, #0
   217e2:	2800      	cmp	r0, #0
   217e4:	d018      	beq.n	21818 <DALHeap_Malloc+0x3c>
   217e6:	2900      	cmp	r1, #0
   217e8:	d016      	beq.n	21818 <DALHeap_Malloc+0x3c>
   217ea:	0788      	lsls	r0, r1, #30
   217ec:	d002      	beq.n	217f4 <DALHeap_Malloc+0x18>
   217ee:	0889      	lsrs	r1, r1, #2
   217f0:	0089      	lsls	r1, r1, #2
   217f2:	1d09      	adds	r1, r1, #4
   217f4:	6868      	ldr	r0, [r5, #4]
   217f6:	000e      	movs	r6, r1
   217f8:	f000 fa00 	bl	21bfc <DALSYS_SyncEnter>
   217fc:	481e      	ldr	r0, [pc, #120]	; (21878 <DALHeap_Malloc+0x9c>)
   217fe:	6801      	ldr	r1, [r0, #0]
   21800:	1989      	adds	r1, r1, r6
   21802:	6001      	str	r1, [r0, #0]
   21804:	6841      	ldr	r1, [r0, #4]
   21806:	1c49      	adds	r1, r1, #1
   21808:	6041      	str	r1, [r0, #4]
   2180a:	682c      	ldr	r4, [r5, #0]
   2180c:	2c00      	cmp	r4, #0
   2180e:	d02b      	beq.n	21868 <DALHeap_Malloc+0x8c>
   21810:	6820      	ldr	r0, [r4, #0]
   21812:	07c1      	lsls	r1, r0, #31
   21814:	d004      	beq.n	21820 <DALHeap_Malloc+0x44>
   21816:	e009      	b.n	2182c <DALHeap_Malloc+0x50>
   21818:	bcf8      	pop	{r3, r4, r5, r6, r7}
   2181a:	bc08      	pop	{r3}
   2181c:	2000      	movs	r0, #0
   2181e:	4718      	bx	r3
   21820:	0841      	lsrs	r1, r0, #1
   21822:	0049      	lsls	r1, r1, #1
   21824:	1b09      	subs	r1, r1, r4
   21826:	3908      	subs	r1, #8
   21828:	42b1      	cmp	r1, r6
   2182a:	d203      	bcs.n	21834 <DALHeap_Malloc+0x58>
   2182c:	0844      	lsrs	r4, r0, #1
   2182e:	0064      	lsls	r4, r4, #1
   21830:	d1ee      	bne.n	21810 <DALHeap_Malloc+0x34>
   21832:	e019      	b.n	21868 <DALHeap_Malloc+0x8c>
   21834:	2c00      	cmp	r4, #0
   21836:	d017      	beq.n	21868 <DALHeap_Malloc+0x8c>
   21838:	0841      	lsrs	r1, r0, #1
   2183a:	0049      	lsls	r1, r1, #1
   2183c:	1b0a      	subs	r2, r1, r4
   2183e:	0027      	movs	r7, r4
   21840:	0031      	movs	r1, r6
   21842:	3708      	adds	r7, #8
   21844:	3a08      	subs	r2, #8
   21846:	3108      	adds	r1, #8
   21848:	428a      	cmp	r2, r1
   2184a:	d909      	bls.n	21860 <DALHeap_Malloc+0x84>
   2184c:	19b9      	adds	r1, r7, r6
   2184e:	000a      	movs	r2, r1
   21850:	c211      	stmia	r2!, {r0, r4}
   21852:	6820      	ldr	r0, [r4, #0]
   21854:	6041      	str	r1, [r0, #4]
   21856:	6021      	str	r1, [r4, #0]
   21858:	6828      	ldr	r0, [r5, #0]
   2185a:	42a0      	cmp	r0, r4
   2185c:	d100      	bne.n	21860 <DALHeap_Malloc+0x84>
   2185e:	6029      	str	r1, [r5, #0]
   21860:	6820      	ldr	r0, [r4, #0]
   21862:	2101      	movs	r1, #1
   21864:	4308      	orrs	r0, r1
   21866:	6020      	str	r0, [r4, #0]
   21868:	6868      	ldr	r0, [r5, #4]
   2186a:	f000 f9d7 	bl	21c1c <DALSYS_SyncLeave>
   2186e:	0038      	movs	r0, r7
   21870:	bcf8      	pop	{r3, r4, r5, r6, r7}
   21872:	bc08      	pop	{r3}
   21874:	4718      	bx	r3
   21876:	0000      	.short	0x0000
   21878:	0003e644 	.word	0x0003e644

0002187c <DALSYSCMN_GetEnv>:
   2187c:	4800      	ldr	r0, [pc, #0]	; (21880 <DALSYSCMN_GetEnv+0x4>)
   2187e:	4770      	bx	lr
   21880:	0003d858 	.word	0x0003d858

00021884 <DALSYS_BusyWait>:
   21884:	b510      	push	{r4, lr}
   21886:	f00e f810 	bl	2f8aa <busywait>
   2188a:	bc10      	pop	{r4}
   2188c:	bc08      	pop	{r3}
   2188e:	4718      	bx	r3

00021890 <DALSYS_DestroyEventObject>:
   21890:	b570      	push	{r4, r5, r6, lr}
   21892:	0844      	lsrs	r4, r0, #1
   21894:	0005      	movs	r5, r0
   21896:	0064      	lsls	r4, r4, #1
   21898:	07c0      	lsls	r0, r0, #31
   2189a:	d117      	bne.n	218cc <DALSYS_DestroyEventObject+0x3c>
   2189c:	6820      	ldr	r0, [r4, #0]
   2189e:	0600      	lsls	r0, r0, #24
   218a0:	d50b      	bpl.n	218ba <DALSYS_DestroyEventObject+0x2a>
   218a2:	f7ff ffeb 	bl	2187c <DALSYSCMN_GetEnv>
   218a6:	2800      	cmp	r0, #0
   218a8:	d007      	beq.n	218ba <DALSYS_DestroyEventObject+0x2a>
   218aa:	6840      	ldr	r0, [r0, #4]
   218ac:	2800      	cmp	r0, #0
   218ae:	d004      	beq.n	218ba <DALSYS_DestroyEventObject+0x2a>
   218b0:	6842      	ldr	r2, [r0, #4]
   218b2:	0029      	movs	r1, r5
   218b4:	6a92      	ldr	r2, [r2, #40]	; 0x28
   218b6:	f00d fb82 	bl	2efbe <__ARM_common_call_via_r2>
   218ba:	6820      	ldr	r0, [r4, #0]
   218bc:	2800      	cmp	r0, #0
   218be:	da03      	bge.n	218c8 <DALSYS_DestroyEventObject+0x38>
   218c0:	0020      	movs	r0, r4
   218c2:	f007 fa6f 	bl	28da4 <_DALSYS_FreeObj>
   218c6:	e001      	b.n	218cc <DALSYS_DestroyEventObject+0x3c>
   218c8:	4802      	ldr	r0, [pc, #8]	; (218d4 <DALSYS_DestroyEventObject+0x44>)
   218ca:	6020      	str	r0, [r4, #0]
   218cc:	bc70      	pop	{r4, r5, r6}
   218ce:	bc08      	pop	{r3}
   218d0:	2000      	movs	r0, #0
   218d2:	4718      	bx	r3
   218d4:	dead0000 	.word	0xdead0000

000218d8 <DALSYS_DestroyObject>:
   218d8:	0003      	movs	r3, r0
   218da:	0840      	lsrs	r0, r0, #1
   218dc:	b510      	push	{r4, lr}
   218de:	0040      	lsls	r0, r0, #1
   218e0:	d011      	beq.n	21906 <DALSYS_DestroyObject+0x2e>
   218e2:	6801      	ldr	r1, [r0, #0]
   218e4:	070a      	lsls	r2, r1, #28
   218e6:	0f12      	lsrs	r2, r2, #28
   218e8:	2a01      	cmp	r2, #1
   218ea:	d006      	beq.n	218fa <DALSYS_DestroyObject+0x22>
   218ec:	2a02      	cmp	r2, #2
   218ee:	d013      	beq.n	21918 <DALSYS_DestroyObject+0x40>
   218f0:	2a03      	cmp	r2, #3
   218f2:	d017      	beq.n	21924 <DALSYS_DestroyObject+0x4c>
   218f4:	2a04      	cmp	r2, #4
   218f6:	d027      	beq.n	21948 <DALSYS_DestroyObject+0x70>
   218f8:	e02e      	b.n	21958 <DALSYS_DestroyObject+0x80>
   218fa:	07da      	lsls	r2, r3, #31
   218fc:	d006      	beq.n	2190c <DALSYS_DestroyObject+0x34>
   218fe:	0689      	lsls	r1, r1, #26
   21900:	d52a      	bpl.n	21958 <DALSYS_DestroyObject+0x80>
   21902:	f7ff ffc5 	bl	21890 <DALSYS_DestroyEventObject>
   21906:	bc10      	pop	{r4}
   21908:	bc08      	pop	{r3}
   2190a:	4718      	bx	r3
   2190c:	0018      	movs	r0, r3
   2190e:	f7ff ffbf 	bl	21890 <DALSYS_DestroyEventObject>
   21912:	bc10      	pop	{r4}
   21914:	bc08      	pop	{r3}
   21916:	4718      	bx	r3
   21918:	0018      	movs	r0, r3
   2191a:	f000 f825 	bl	21968 <DALSYS_DestroySyncObject>
   2191e:	bc10      	pop	{r4}
   21920:	bc08      	pop	{r3}
   21922:	4718      	bx	r3
   21924:	6901      	ldr	r1, [r0, #16]
   21926:	0004      	movs	r4, r0
   21928:	2900      	cmp	r1, #0
   2192a:	d002      	beq.n	21932 <DALSYS_DestroyObject+0x5a>
   2192c:	480d      	ldr	r0, [pc, #52]	; (21964 <DALSYS_DestroyObject+0x8c>)
   2192e:	f7ff feef 	bl	21710 <DALHeap_Free>
   21932:	6820      	ldr	r0, [r4, #0]
   21934:	2800      	cmp	r0, #0
   21936:	da03      	bge.n	21940 <DALSYS_DestroyObject+0x68>
   21938:	480a      	ldr	r0, [pc, #40]	; (21964 <DALSYS_DestroyObject+0x8c>)
   2193a:	0021      	movs	r1, r4
   2193c:	f7ff fee8 	bl	21710 <DALHeap_Free>
   21940:	bc10      	pop	{r4}
   21942:	bc08      	pop	{r3}
   21944:	2000      	movs	r0, #0
   21946:	4718      	bx	r3
   21948:	f7ff f8ec 	bl	20b24 <__aeabi_uidiv+0x30>
   2194c:	4678      	mov	r0, pc
   2194e:	2300      	movs	r3, #0
   21950:	001a      	movs	r2, r3
   21952:	0019      	movs	r1, r3
   21954:	f010 fe70 	bl	32638 <err_fatal_handler>
   21958:	bc10      	pop	{r4}
   2195a:	bc08      	pop	{r3}
   2195c:	2000      	movs	r0, #0
   2195e:	43c0      	mvns	r0, r0
   21960:	4718      	bx	r3
   21962:	0000      	.short	0x0000
   21964:	0003d864 	.word	0x0003d864

00021968 <DALSYS_DestroySyncObject>:
   21968:	2000      	movs	r0, #0
   2196a:	4770      	bx	lr

0002196c <DALSYS_EventCreate>:
   2196c:	b5f8      	push	{r3, r4, r5, r6, r7, lr}
   2196e:	0005      	movs	r5, r0
   21970:	000f      	movs	r7, r1
   21972:	0014      	movs	r4, r2
   21974:	2600      	movs	r6, #0
   21976:	062b      	lsls	r3, r5, #24
   21978:	4833      	ldr	r0, [pc, #204]	; (21a48 <DALSYS_EventCreate+0xdc>)
   2197a:	210c      	movs	r1, #12
   2197c:	221e      	movs	r2, #30
   2197e:	0f9b      	lsrs	r3, r3, #30
   21980:	2b03      	cmp	r3, #3
   21982:	603e      	str	r6, [r7, #0]
   21984:	d003      	beq.n	2198e <DALSYS_EventCreate+0x22>
   21986:	06ab      	lsls	r3, r5, #26
   21988:	0f9b      	lsrs	r3, r3, #30
   2198a:	d005      	beq.n	21998 <DALSYS_EventCreate+0x2c>
   2198c:	e007      	b.n	2199e <DALSYS_EventCreate+0x32>
   2198e:	bcf8      	pop	{r3, r4, r5, r6, r7}
   21990:	bc08      	pop	{r3}
   21992:	2000      	movs	r0, #0
   21994:	43c0      	mvns	r0, r0
   21996:	4718      	bx	r3
   21998:	23ff      	movs	r3, #255	; 0xff
   2199a:	3301      	adds	r3, #1
   2199c:	431d      	orrs	r5, r3
   2199e:	062b      	lsls	r3, r5, #24
   219a0:	9300      	str	r3, [sp, #0]
   219a2:	0f9b      	lsrs	r3, r3, #30
   219a4:	d002      	beq.n	219ac <DALSYS_EventCreate+0x40>
   219a6:	4829      	ldr	r0, [pc, #164]	; (21a4c <DALSYS_EventCreate+0xe0>)
   219a8:	2118      	movs	r1, #24
   219aa:	2201      	movs	r2, #1
   219ac:	2c00      	cmp	r4, #0
   219ae:	d002      	beq.n	219b6 <DALSYS_EventCreate+0x4a>
   219b0:	0030      	movs	r0, r6
   219b2:	6026      	str	r6, [r4, #0]
   219b4:	e00e      	b.n	219d4 <DALSYS_EventCreate+0x68>
   219b6:	f007 fa11 	bl	28ddc <_DALSYS_MallocObj>
   219ba:	0004      	movs	r4, r0
   219bc:	d107      	bne.n	219ce <DALSYS_EventCreate+0x62>
   219be:	f7ff f8b1 	bl	20b24 <__aeabi_uidiv+0x30>
   219c2:	4678      	mov	r0, pc
   219c4:	2300      	movs	r3, #0
   219c6:	001a      	movs	r2, r3
   219c8:	0019      	movs	r1, r3
   219ca:	f010 fe35 	bl	32638 <err_fatal_handler>
   219ce:	2001      	movs	r0, #1
   219d0:	07c0      	lsls	r0, r0, #31
   219d2:	6020      	str	r0, [r4, #0]
   219d4:	2101      	movs	r1, #1
   219d6:	4308      	orrs	r0, r1
   219d8:	6020      	str	r0, [r4, #0]
   219da:	06a8      	lsls	r0, r5, #26
   219dc:	603c      	str	r4, [r7, #0]
   219de:	d505      	bpl.n	219ec <DALSYS_EventCreate+0x80>
   219e0:	6066      	str	r6, [r4, #4]
   219e2:	60a6      	str	r6, [r4, #8]
   219e4:	6820      	ldr	r0, [r4, #0]
   219e6:	2120      	movs	r1, #32
   219e8:	4308      	orrs	r0, r1
   219ea:	6020      	str	r0, [r4, #0]
   219ec:	9800      	ldr	r0, [sp, #0]
   219ee:	0f80      	lsrs	r0, r0, #30
   219f0:	d01a      	beq.n	21a28 <DALSYS_EventCreate+0xbc>
   219f2:	2000      	movs	r0, #0
   219f4:	6066      	str	r6, [r4, #4]
   219f6:	43c0      	mvns	r0, r0
   219f8:	60e6      	str	r6, [r4, #12]
   219fa:	6120      	str	r0, [r4, #16]
   219fc:	4814      	ldr	r0, [pc, #80]	; (21a50 <DALSYS_EventCreate+0xe4>)
   219fe:	6160      	str	r0, [r4, #20]
   21a00:	0628      	lsls	r0, r5, #24
   21a02:	6820      	ldr	r0, [r4, #0]
   21a04:	d503      	bpl.n	21a0e <DALSYS_EventCreate+0xa2>
   21a06:	2180      	movs	r1, #128	; 0x80
   21a08:	4308      	orrs	r0, r1
   21a0a:	6020      	str	r0, [r4, #0]
   21a0c:	e002      	b.n	21a14 <DALSYS_EventCreate+0xa8>
   21a0e:	2140      	movs	r1, #64	; 0x40
   21a10:	4308      	orrs	r0, r1
   21a12:	6020      	str	r0, [r4, #0]
   21a14:	06e8      	lsls	r0, r5, #27
   21a16:	d407      	bmi.n	21a28 <DALSYS_EventCreate+0xbc>
   21a18:	f015 fbf4 	bl	37204 <rex_self>
   21a1c:	1d24      	adds	r4, r4, #4
   21a1e:	c441      	stmia	r4!, {r0, r6}
   21a20:	bcf8      	pop	{r3, r4, r5, r6, r7}
   21a22:	bc08      	pop	{r3}
   21a24:	2000      	movs	r0, #0
   21a26:	4718      	bx	r3
   21a28:	05e8      	lsls	r0, r5, #23
   21a2a:	d508      	bpl.n	21a3e <DALSYS_EventCreate+0xd2>
   21a2c:	6820      	ldr	r0, [r4, #0]
   21a2e:	21ff      	movs	r1, #255	; 0xff
   21a30:	3101      	adds	r1, #1
   21a32:	4308      	orrs	r0, r1
   21a34:	6020      	str	r0, [r4, #0]
   21a36:	f015 fbe5 	bl	37204 <rex_self>
   21a3a:	1d24      	adds	r4, r4, #4
   21a3c:	c441      	stmia	r4!, {r0, r6}
   21a3e:	bcf8      	pop	{r3, r4, r5, r6, r7}
   21a40:	bc08      	pop	{r3}
   21a42:	2000      	movs	r0, #0
   21a44:	4718      	bx	r3
   21a46:	0000      	.short	0x0000
   21a48:	0003d6d8 	.word	0x0003d6d8
   21a4c:	0003d840 	.word	0x0003d840
   21a50:	deaddead 	.word	0xdeaddead

00021a54 <DALSYS_EventCtrlEx>:
   21a54:	b570      	push	{r4, r5, r6, lr}
   21a56:	0016      	movs	r6, r2
   21a58:	001a      	movs	r2, r3
   21a5a:	9b04      	ldr	r3, [sp, #16]
   21a5c:	0844      	lsrs	r4, r0, #1
   21a5e:	0064      	lsls	r4, r4, #1
   21a60:	d03b      	beq.n	21ada <DALSYS_EventCtrlEx+0x86>
   21a62:	1fc8      	subs	r0, r1, #7
   21a64:	38f9      	subs	r0, #249	; 0xf9
   21a66:	d122      	bne.n	21aae <DALSYS_EventCtrlEx+0x5a>
   21a68:	6820      	ldr	r0, [r4, #0]
   21a6a:	0681      	lsls	r1, r0, #26
   21a6c:	d507      	bpl.n	21a7e <DALSYS_EventCtrlEx+0x2a>
   21a6e:	6865      	ldr	r5, [r4, #4]
   21a70:	2d00      	cmp	r5, #0
   21a72:	d032      	beq.n	21ada <DALSYS_EventCtrlEx+0x86>
   21a74:	68a0      	ldr	r0, [r4, #8]
   21a76:	0031      	movs	r1, r6
   21a78:	f00d faa4 	bl	2efc4 <__ARM_common_call_via_r5>
   21a7c:	e013      	b.n	21aa6 <DALSYS_EventCtrlEx+0x52>
   21a7e:	06c0      	lsls	r0, r0, #27
   21a80:	d508      	bpl.n	21a94 <DALSYS_EventCtrlEx+0x40>
   21a82:	f7ff f84f 	bl	20b24 <__aeabi_uidiv+0x30>
   21a86:	4678      	mov	r0, pc
   21a88:	2300      	movs	r3, #0
   21a8a:	001a      	movs	r2, r3
   21a8c:	0019      	movs	r1, r3
   21a8e:	f010 fdd3 	bl	32638 <err_fatal_handler>
   21a92:	e022      	b.n	21ada <DALSYS_EventCtrlEx+0x86>
   21a94:	6860      	ldr	r0, [r4, #4]
   21a96:	2800      	cmp	r0, #0
   21a98:	d01f      	beq.n	21ada <DALSYS_EventCtrlEx+0x86>
   21a9a:	2001      	movs	r0, #1
   21a9c:	60a0      	str	r0, [r4, #8]
   21a9e:	6860      	ldr	r0, [r4, #4]
   21aa0:	2101      	movs	r1, #1
   21aa2:	f015 fbbf 	bl	37224 <rex_set_sigs>
   21aa6:	bc70      	pop	{r4, r5, r6}
   21aa8:	bc08      	pop	{r3}
   21aaa:	2000      	movs	r0, #0
   21aac:	4718      	bx	r3
   21aae:	1fc8      	subs	r0, r1, #7
   21ab0:	38ff      	subs	r0, #255	; 0xff
   21ab2:	38fa      	subs	r0, #250	; 0xfa
   21ab4:	d109      	bne.n	21aca <DALSYS_EventCtrlEx+0x76>
   21ab6:	6820      	ldr	r0, [r4, #0]
   21ab8:	0680      	lsls	r0, r0, #26
   21aba:	0f80      	lsrs	r0, r0, #30
   21abc:	d10d      	bne.n	21ada <DALSYS_EventCtrlEx+0x86>
   21abe:	f015 fba1 	bl	37204 <rex_self>
   21ac2:	6060      	str	r0, [r4, #4]
   21ac4:	2000      	movs	r0, #0
   21ac6:	60a0      	str	r0, [r4, #8]
   21ac8:	e7ed      	b.n	21aa6 <DALSYS_EventCtrlEx+0x52>
   21aca:	2001      	movs	r0, #1
   21acc:	0280      	lsls	r0, r0, #10
   21ace:	4281      	cmp	r1, r0
   21ad0:	d103      	bne.n	21ada <DALSYS_EventCtrlEx+0x86>
   21ad2:	6820      	ldr	r0, [r4, #0]
   21ad4:	0680      	lsls	r0, r0, #26
   21ad6:	0f80      	lsrs	r0, r0, #30
   21ad8:	d004      	beq.n	21ae4 <DALSYS_EventCtrlEx+0x90>
   21ada:	bc70      	pop	{r4, r5, r6}
   21adc:	bc08      	pop	{r3}
   21ade:	2000      	movs	r0, #0
   21ae0:	43c0      	mvns	r0, r0
   21ae2:	4718      	bx	r3
   21ae4:	f015 fb8e 	bl	37204 <rex_self>
   21ae8:	6060      	str	r0, [r4, #4]
   21aea:	e7dc      	b.n	21aa6 <DALSYS_EventCtrlEx+0x52>

00021aec <DALSYS_Free>:
   21aec:	0001      	movs	r1, r0
   21aee:	b510      	push	{r4, lr}
   21af0:	4803      	ldr	r0, [pc, #12]	; (21b00 <DALSYS_Free+0x14>)
   21af2:	f7ff fe0d 	bl	21710 <DALHeap_Free>
   21af6:	bc10      	pop	{r4}
   21af8:	bc08      	pop	{r3}
   21afa:	2000      	movs	r0, #0
   21afc:	4718      	bx	r3
   21afe:	0000      	.short	0x0000
   21b00:	0003d864 	.word	0x0003d864

00021b04 <DALSYS_InitMod>:
   21b04:	b530      	push	{r4, r5, lr}
   21b06:	481a      	ldr	r0, [pc, #104]	; (21b70 <DALSYS_InitMod+0x6c>)
   21b08:	4c1b      	ldr	r4, [pc, #108]	; (21b78 <DALSYS_InitMod+0x74>)
   21b0a:	6802      	ldr	r2, [r0, #0]
   21b0c:	4819      	ldr	r0, [pc, #100]	; (21b74 <DALSYS_InitMod+0x70>)
   21b0e:	2501      	movs	r5, #1
   21b10:	6801      	ldr	r1, [r0, #0]
   21b12:	68a0      	ldr	r0, [r4, #8]
   21b14:	1a52      	subs	r2, r2, r1
   21b16:	2800      	cmp	r0, #0
   21b18:	b085      	sub	sp, #20
   21b1a:	d105      	bne.n	21b28 <DALSYS_InitMod+0x24>
   21b1c:	4817      	ldr	r0, [pc, #92]	; (21b7c <DALSYS_InitMod+0x78>)
   21b1e:	f7ff fe37 	bl	21790 <DALHeap_Init>
   21b22:	2800      	cmp	r0, #0
   21b24:	d11f      	bne.n	21b66 <DALSYS_InitMod+0x62>
   21b26:	60a5      	str	r5, [r4, #8]
   21b28:	6820      	ldr	r0, [r4, #0]
   21b2a:	2800      	cmp	r0, #0
   21b2c:	d106      	bne.n	21b3c <DALSYS_InitMod+0x38>
   21b2e:	4912      	ldr	r1, [pc, #72]	; (21b78 <DALSYS_InitMod+0x74>)
   21b30:	2200      	movs	r2, #0
   21b32:	2040      	movs	r0, #64	; 0x40
   21b34:	f000 f850 	bl	21bd8 <DALSYS_SyncCreate>
   21b38:	2800      	cmp	r0, #0
   21b3a:	d114      	bne.n	21b66 <DALSYS_InitMod+0x62>
   21b3c:	f016 ffa8 	bl	38a90 <tramp_init>
   21b40:	68e0      	ldr	r0, [r4, #12]
   21b42:	2800      	cmp	r0, #0
   21b44:	d103      	bne.n	21b4e <DALSYS_InitMod+0x4a>
   21b46:	490e      	ldr	r1, [pc, #56]	; (21b80 <DALSYS_InitMod+0x7c>)
   21b48:	4a0e      	ldr	r2, [pc, #56]	; (21b84 <DALSYS_InitMod+0x80>)
   21b4a:	f000 f875 	bl	21c38 <DAL_DeviceAttachLocal>
   21b4e:	480e      	ldr	r0, [pc, #56]	; (21b88 <DALSYS_InitMod+0x84>)
   21b50:	6005      	str	r5, [r0, #0]
   21b52:	2000      	movs	r0, #0
   21b54:	0003      	movs	r3, r0
   21b56:	0002      	movs	r2, r0
   21b58:	0001      	movs	r1, r0
   21b5a:	9000      	str	r0, [sp, #0]
   21b5c:	9001      	str	r0, [sp, #4]
   21b5e:	9002      	str	r0, [sp, #8]
   21b60:	9003      	str	r0, [sp, #12]
   21b62:	f015 faff 	bl	37164 <rex_init>
   21b66:	b005      	add	sp, #20
   21b68:	bc30      	pop	{r4, r5}
   21b6a:	bc08      	pop	{r3}
   21b6c:	4718      	bx	r3
   21b6e:	0000      	.short	0x0000
   21b70:	0003a6e8 	.word	0x0003a6e8
   21b74:	0003a6e0 	.word	0x0003a6e0
   21b78:	0003a724 	.word	0x0003a724
   21b7c:	0003d864 	.word	0x0003d864
   21b80:	02000003 	.word	0x02000003
   21b84:	0003a730 	.word	0x0003a730
   21b88:	0003a73c 	.word	0x0003a73c

00021b8c <DALSYS_Malloc>:
   21b8c:	b510      	push	{r4, lr}
   21b8e:	000c      	movs	r4, r1
   21b90:	0001      	movs	r1, r0
   21b92:	4809      	ldr	r0, [pc, #36]	; (21bb8 <DALSYS_Malloc+0x2c>)
   21b94:	f7ff fe22 	bl	217dc <DALHeap_Malloc>
   21b98:	2800      	cmp	r0, #0
   21b9a:	6020      	str	r0, [r4, #0]
   21b9c:	d107      	bne.n	21bae <DALSYS_Malloc+0x22>
   21b9e:	f7fe ffc1 	bl	20b24 <__aeabi_uidiv+0x30>
   21ba2:	4678      	mov	r0, pc
   21ba4:	2300      	movs	r3, #0
   21ba6:	001a      	movs	r2, r3
   21ba8:	0019      	movs	r1, r3
   21baa:	f010 fd45 	bl	32638 <err_fatal_handler>
   21bae:	bc10      	pop	{r4}
   21bb0:	bc08      	pop	{r3}
   21bb2:	2000      	movs	r0, #0
   21bb4:	4718      	bx	r3
   21bb6:	0000      	.short	0x0000
   21bb8:	0003d864 	.word	0x0003d864

00021bbc <DALSYS_SetupCallbackEvent>:
   21bbc:	0840      	lsrs	r0, r0, #1
   21bbe:	0040      	lsls	r0, r0, #1
   21bc0:	d006      	beq.n	21bd0 <DALSYS_SetupCallbackEvent+0x14>
   21bc2:	6803      	ldr	r3, [r0, #0]
   21bc4:	069b      	lsls	r3, r3, #26
   21bc6:	d503      	bpl.n	21bd0 <DALSYS_SetupCallbackEvent+0x14>
   21bc8:	1d00      	adds	r0, r0, #4
   21bca:	c006      	stmia	r0!, {r1, r2}
   21bcc:	2000      	movs	r0, #0
   21bce:	4770      	bx	lr
   21bd0:	2000      	movs	r0, #0
   21bd2:	43c0      	mvns	r0, r0
   21bd4:	4770      	bx	lr
	...

00021bd8 <DALSYS_SyncCreate>:
   21bd8:	2300      	movs	r3, #0
   21bda:	2a00      	cmp	r2, #0
   21bdc:	600b      	str	r3, [r1, #0]
   21bde:	d104      	bne.n	21bea <DALSYS_SyncCreate+0x12>
   21be0:	22f0      	movs	r2, #240	; 0xf0
   21be2:	4390      	bics	r0, r2
   21be4:	2240      	movs	r2, #64	; 0x40
   21be6:	4310      	orrs	r0, r2
   21be8:	4a03      	ldr	r2, [pc, #12]	; (21bf8 <DALSYS_SyncCreate+0x20>)
   21bea:	2302      	movs	r3, #2
   21bec:	4303      	orrs	r3, r0
   21bee:	6013      	str	r3, [r2, #0]
   21bf0:	2000      	movs	r0, #0
   21bf2:	600a      	str	r2, [r1, #0]
   21bf4:	4770      	bx	lr
   21bf6:	0000      	.short	0x0000
   21bf8:	0003e654 	.word	0x0003e654

00021bfc <DALSYS_SyncEnter>:
   21bfc:	2800      	cmp	r0, #0
   21bfe:	d00c      	beq.n	21c1a <DALSYS_SyncEnter+0x1e>
   21c00:	b510      	push	{r4, lr}
   21c02:	0004      	movs	r4, r0
   21c04:	f7ff f8ee 	bl	20de4 <rex_int_lock>
   21c08:	2800      	cmp	r0, #0
   21c0a:	d000      	beq.n	21c0e <DALSYS_SyncEnter+0x12>
   21c0c:	2001      	movs	r0, #1
   21c0e:	6861      	ldr	r1, [r4, #4]
   21c10:	1840      	adds	r0, r0, r1
   21c12:	6060      	str	r0, [r4, #4]
   21c14:	bc10      	pop	{r4}
   21c16:	bc08      	pop	{r3}
   21c18:	4718      	bx	r3
   21c1a:	4770      	bx	lr

00021c1c <DALSYS_SyncLeave>:
   21c1c:	2800      	cmp	r0, #0
   21c1e:	d004      	beq.n	21c2a <DALSYS_SyncLeave+0xe>
   21c20:	6841      	ldr	r1, [r0, #4]
   21c22:	2900      	cmp	r1, #0
   21c24:	d002      	beq.n	21c2c <DALSYS_SyncLeave+0x10>
   21c26:	1e49      	subs	r1, r1, #1
   21c28:	6041      	str	r1, [r0, #4]
   21c2a:	4770      	bx	lr
   21c2c:	b510      	push	{r4, lr}
   21c2e:	f7ff f8e5 	bl	20dfc <rex_int_free>
   21c32:	bc10      	pop	{r4}
   21c34:	bc08      	pop	{r3}
   21c36:	4718      	bx	r3

00021c38 <DAL_DeviceAttachLocal>:
   21c38:	b5f8      	push	{r3, r4, r5, r6, r7, lr}
   21c3a:	0015      	movs	r5, r2
   21c3c:	2200      	movs	r2, #0
   21c3e:	602a      	str	r2, [r5, #0]
   21c40:	9000      	str	r0, [sp, #0]
   21c42:	4828      	ldr	r0, [pc, #160]	; (21ce4 <DAL_DeviceAttachLocal+0xac>)
   21c44:	0013      	movs	r3, r2
   21c46:	6800      	ldr	r0, [r0, #0]
   21c48:	6802      	ldr	r2, [r0, #0]
   21c4a:	2a00      	cmp	r2, #0
   21c4c:	4696      	mov	lr, r2
   21c4e:	d91b      	bls.n	21c88 <DAL_DeviceAttachLocal+0x50>
   21c50:	6840      	ldr	r0, [r0, #4]
   21c52:	4684      	mov	ip, r0
   21c54:	009a      	lsls	r2, r3, #2
   21c56:	4664      	mov	r4, ip
   21c58:	58a7      	ldr	r7, [r4, r2]
   21c5a:	2000      	movs	r0, #0
   21c5c:	687c      	ldr	r4, [r7, #4]
   21c5e:	1e22      	subs	r2, r4, #0
   21c60:	d90f      	bls.n	21c82 <DAL_DeviceAttachLocal+0x4a>
   21c62:	68bc      	ldr	r4, [r7, #8]
   21c64:	0086      	lsls	r6, r0, #2
   21c66:	59a6      	ldr	r6, [r4, r6]
   21c68:	428e      	cmp	r6, r1
   21c6a:	d107      	bne.n	21c7c <DAL_DeviceAttachLocal+0x44>
   21c6c:	683b      	ldr	r3, [r7, #0]
   21c6e:	9800      	ldr	r0, [sp, #0]
   21c70:	002a      	movs	r2, r5
   21c72:	f00d f9a5 	bl	2efc0 <__ARM_common_call_via_r3>
   21c76:	2800      	cmp	r0, #0
   21c78:	d00a      	beq.n	21c90 <DAL_DeviceAttachLocal+0x58>
   21c7a:	e005      	b.n	21c88 <DAL_DeviceAttachLocal+0x50>
   21c7c:	1c40      	adds	r0, r0, #1
   21c7e:	4282      	cmp	r2, r0
   21c80:	d8f0      	bhi.n	21c64 <DAL_DeviceAttachLocal+0x2c>
   21c82:	1c5b      	adds	r3, r3, #1
   21c84:	459e      	cmp	lr, r3
   21c86:	d8e5      	bhi.n	21c54 <DAL_DeviceAttachLocal+0x1c>
   21c88:	bcf8      	pop	{r3, r4, r5, r6, r7}
   21c8a:	bc08      	pop	{r3}
   21c8c:	4816      	ldr	r0, [pc, #88]	; (21ce8 <DAL_DeviceAttachLocal+0xb0>)
   21c8e:	4718      	bx	r3
   21c90:	6828      	ldr	r0, [r5, #0]
   21c92:	6881      	ldr	r1, [r0, #8]
   21c94:	68c9      	ldr	r1, [r1, #12]
   21c96:	6809      	ldr	r1, [r1, #0]
   21c98:	2901      	cmp	r1, #1
   21c9a:	d11e      	bne.n	21cda <DAL_DeviceAttachLocal+0xa2>
   21c9c:	4388      	bics	r0, r1
   21c9e:	6841      	ldr	r1, [r0, #4]
   21ca0:	6889      	ldr	r1, [r1, #8]
   21ca2:	f00d f98b 	bl	2efbc <__ARM_common_call_via_r1>
   21ca6:	0006      	movs	r6, r0
   21ca8:	d017      	beq.n	21cda <DAL_DeviceAttachLocal+0xa2>
   21caa:	682c      	ldr	r4, [r5, #0]
   21cac:	68a0      	ldr	r0, [r4, #8]
   21cae:	68c0      	ldr	r0, [r0, #12]
   21cb0:	6800      	ldr	r0, [r0, #0]
   21cb2:	2801      	cmp	r0, #1
   21cb4:	d105      	bne.n	21cc2 <DAL_DeviceAttachLocal+0x8a>
   21cb6:	0860      	lsrs	r0, r4, #1
   21cb8:	0040      	lsls	r0, r0, #1
   21cba:	6841      	ldr	r1, [r0, #4]
   21cbc:	68c9      	ldr	r1, [r1, #12]
   21cbe:	f00d f97d 	bl	2efbc <__ARM_common_call_via_r1>
   21cc2:	0860      	lsrs	r0, r4, #1
   21cc4:	0040      	lsls	r0, r0, #1
   21cc6:	6841      	ldr	r1, [r0, #4]
   21cc8:	6849      	ldr	r1, [r1, #4]
   21cca:	f00d f977 	bl	2efbc <__ARM_common_call_via_r1>
   21cce:	2000      	movs	r0, #0
   21cd0:	6028      	str	r0, [r5, #0]
   21cd2:	0030      	movs	r0, r6
   21cd4:	bcf8      	pop	{r3, r4, r5, r6, r7}
   21cd6:	bc08      	pop	{r3}
   21cd8:	4718      	bx	r3
   21cda:	bcf8      	pop	{r3, r4, r5, r6, r7}
   21cdc:	bc08      	pop	{r3}
   21cde:	2000      	movs	r0, #0
   21ce0:	4718      	bx	r3
   21ce2:	0000      	.short	0x0000
   21ce4:	0003a728 	.word	0x0003a728
   21ce8:	80000006 	.word	0x80000006

00021cec <DAL_RPMFWDeviceAttach>:
   21cec:	b570      	push	{r4, r5, r6, lr}
   21cee:	4c0a      	ldr	r4, [pc, #40]	; (21d18 <DAL_RPMFWDeviceAttach+0x2c>)
   21cf0:	000d      	movs	r5, r1
   21cf2:	6821      	ldr	r1, [r4, #0]
   21cf4:	2000      	movs	r0, #0
   21cf6:	2900      	cmp	r1, #0
   21cf8:	d107      	bne.n	21d0a <DAL_RPMFWDeviceAttach+0x1e>
   21cfa:	4808      	ldr	r0, [pc, #32]	; (21d1c <DAL_RPMFWDeviceAttach+0x30>)
   21cfc:	1f01      	subs	r1, r0, #4
   21cfe:	6041      	str	r1, [r0, #4]
   21d00:	2000      	movs	r0, #0
   21d02:	f000 fb57 	bl	223b4 <DalRPMFW_DriverInit>
   21d06:	2800      	cmp	r0, #0
   21d08:	d103      	bne.n	21d12 <DAL_RPMFWDeviceAttach+0x26>
   21d0a:	2101      	movs	r1, #1
   21d0c:	6021      	str	r1, [r4, #0]
   21d0e:	4904      	ldr	r1, [pc, #16]	; (21d20 <DAL_RPMFWDeviceAttach+0x34>)
   21d10:	6029      	str	r1, [r5, #0]
   21d12:	bc70      	pop	{r4, r5, r6}
   21d14:	bc08      	pop	{r3}
   21d16:	4718      	bx	r3
   21d18:	0003a7f8 	.word	0x0003a7f8
   21d1c:	0003a7fc 	.word	0x0003a7fc
   21d20:	0003a7fd 	.word	0x0003a7fd

00021d24 <DAL_RPMFWDeviceDetach>:
   21d24:	2000      	movs	r0, #0
   21d26:	4770      	bx	lr

00021d28 <DALpdAxiCfg_Target_ClkMod>:
   21d28:	b5ff      	push	{r0, r1, r2, r3, r4, r5, r6, r7, lr}
   21d2a:	483b      	ldr	r0, [pc, #236]	; (21e18 <DALpdAxiCfg_Target_ClkMod+0xf0>)
   21d2c:	000c      	movs	r4, r1
   21d2e:	2500      	movs	r5, #0
   21d30:	b081      	sub	sp, #4
   21d32:	2a0c      	cmp	r2, #12
   21d34:	6018      	str	r0, [r3, #0]
   21d36:	d05f      	beq.n	21df8 <DALpdAxiCfg_Target_ClkMod+0xd0>
   21d38:	4938      	ldr	r1, [pc, #224]	; (21e1c <DALpdAxiCfg_Target_ClkMod+0xf4>)
   21d3a:	1e68      	subs	r0, r5, #1
   21d3c:	6048      	str	r0, [r1, #4]
   21d3e:	b005      	add	sp, #20
   21d40:	bcf0      	pop	{r4, r5, r6, r7}
   21d42:	bc08      	pop	{r3}
   21d44:	4718      	bx	r3
   21d46:	2001      	movs	r0, #1
   21d48:	4669      	mov	r1, sp
   21d4a:	7008      	strb	r0, [r1, #0]
   21d4c:	6820      	ldr	r0, [r4, #0]
   21d4e:	2800      	cmp	r0, #0
   21d50:	d007      	beq.n	21d62 <DALpdAxiCfg_Target_ClkMod+0x3a>
   21d52:	4241      	negs	r1, r0
   21d54:	4008      	ands	r0, r1
   21d56:	4932      	ldr	r1, [pc, #200]	; (21e20 <DALpdAxiCfg_Target_ClkMod+0xf8>)
   21d58:	4348      	muls	r0, r1
   21d5a:	0ec0      	lsrs	r0, r0, #27
   21d5c:	5c38      	ldrb	r0, [r7, r0]
   21d5e:	0841      	lsrs	r1, r0, #1
   21d60:	e008      	b.n	21d74 <DALpdAxiCfg_Target_ClkMod+0x4c>
   21d62:	8920      	ldrh	r0, [r4, #8]
   21d64:	4241      	negs	r1, r0
   21d66:	4008      	ands	r0, r1
   21d68:	492d      	ldr	r1, [pc, #180]	; (21e20 <DALpdAxiCfg_Target_ClkMod+0xf8>)
   21d6a:	4348      	muls	r0, r1
   21d6c:	0ec0      	lsrs	r0, r0, #27
   21d6e:	5c38      	ldrb	r0, [r7, r0]
   21d70:	0841      	lsrs	r1, r0, #1
   21d72:	3110      	adds	r1, #16
   21d74:	4668      	mov	r0, sp
   21d76:	2910      	cmp	r1, #16
   21d78:	7081      	strb	r1, [r0, #2]
   21d7a:	d206      	bcs.n	21d8a <DALpdAxiCfg_Target_ClkMod+0x62>
   21d7c:	0049      	lsls	r1, r1, #1
   21d7e:	0032      	movs	r2, r6
   21d80:	6860      	ldr	r0, [r4, #4]
   21d82:	408a      	lsls	r2, r1
   21d84:	4010      	ands	r0, r2
   21d86:	40c8      	lsrs	r0, r1
   21d88:	e006      	b.n	21d98 <DALpdAxiCfg_Target_ClkMod+0x70>
   21d8a:	0049      	lsls	r1, r1, #1
   21d8c:	8962      	ldrh	r2, [r4, #10]
   21d8e:	3920      	subs	r1, #32
   21d90:	0030      	movs	r0, r6
   21d92:	4088      	lsls	r0, r1
   21d94:	4010      	ands	r0, r2
   21d96:	40c8      	lsrs	r0, r1
   21d98:	2800      	cmp	r0, #0
   21d9a:	d006      	beq.n	21daa <DALpdAxiCfg_Target_ClkMod+0x82>
   21d9c:	2801      	cmp	r0, #1
   21d9e:	d008      	beq.n	21db2 <DALpdAxiCfg_Target_ClkMod+0x8a>
   21da0:	2802      	cmp	r0, #2
   21da2:	d00a      	beq.n	21dba <DALpdAxiCfg_Target_ClkMod+0x92>
   21da4:	2803      	cmp	r0, #3
   21da6:	d10f      	bne.n	21dc8 <DALpdAxiCfg_Target_ClkMod+0xa0>
   21da8:	e00b      	b.n	21dc2 <DALpdAxiCfg_Target_ClkMod+0x9a>
   21daa:	200c      	movs	r0, #12
   21dac:	4669      	mov	r1, sp
   21dae:	70c8      	strb	r0, [r1, #3]
   21db0:	e00a      	b.n	21dc8 <DALpdAxiCfg_Target_ClkMod+0xa0>
   21db2:	200d      	movs	r0, #13
   21db4:	4669      	mov	r1, sp
   21db6:	70c8      	strb	r0, [r1, #3]
   21db8:	e006      	b.n	21dc8 <DALpdAxiCfg_Target_ClkMod+0xa0>
   21dba:	200e      	movs	r0, #14
   21dbc:	4669      	mov	r1, sp
   21dbe:	70c8      	strb	r0, [r1, #3]
   21dc0:	e002      	b.n	21dc8 <DALpdAxiCfg_Target_ClkMod+0xa0>
   21dc2:	200f      	movs	r0, #15
   21dc4:	4669      	mov	r1, sp
   21dc6:	70c8      	strb	r0, [r1, #3]
   21dc8:	9801      	ldr	r0, [sp, #4]
   21dca:	4669      	mov	r1, sp
   21dcc:	f000 fc95 	bl	226fa <DalpdAxiCfg_ClockModOp>
   21dd0:	4305      	orrs	r5, r0
   21dd2:	4668      	mov	r0, sp
   21dd4:	7880      	ldrb	r0, [r0, #2]
   21dd6:	2810      	cmp	r0, #16
   21dd8:	d206      	bcs.n	21de8 <DALpdAxiCfg_Target_ClkMod+0xc0>
   21dda:	0042      	lsls	r2, r0, #1
   21ddc:	0030      	movs	r0, r6
   21dde:	6821      	ldr	r1, [r4, #0]
   21de0:	4090      	lsls	r0, r2
   21de2:	4381      	bics	r1, r0
   21de4:	6021      	str	r1, [r4, #0]
   21de6:	e009      	b.n	21dfc <DALpdAxiCfg_Target_ClkMod+0xd4>
   21de8:	0041      	lsls	r1, r0, #1
   21dea:	3920      	subs	r1, #32
   21dec:	0030      	movs	r0, r6
   21dee:	4088      	lsls	r0, r1
   21df0:	8921      	ldrh	r1, [r4, #8]
   21df2:	4381      	bics	r1, r0
   21df4:	8121      	strh	r1, [r4, #8]
   21df6:	e001      	b.n	21dfc <DALpdAxiCfg_Target_ClkMod+0xd4>
   21df8:	4f0a      	ldr	r7, [pc, #40]	; (21e24 <DALpdAxiCfg_Target_ClkMod+0xfc>)
   21dfa:	2603      	movs	r6, #3
   21dfc:	6820      	ldr	r0, [r4, #0]
   21dfe:	2800      	cmp	r0, #0
   21e00:	d1a1      	bne.n	21d46 <DALpdAxiCfg_Target_ClkMod+0x1e>
   21e02:	8920      	ldrh	r0, [r4, #8]
   21e04:	2800      	cmp	r0, #0
   21e06:	d19e      	bne.n	21d46 <DALpdAxiCfg_Target_ClkMod+0x1e>
   21e08:	4804      	ldr	r0, [pc, #16]	; (21e1c <DALpdAxiCfg_Target_ClkMod+0xf4>)
   21e0a:	6045      	str	r5, [r0, #4]
   21e0c:	0028      	movs	r0, r5
   21e0e:	b005      	add	sp, #20
   21e10:	bcf0      	pop	{r4, r5, r6, r7}
   21e12:	bc08      	pop	{r3}
   21e14:	4718      	bx	r3
   21e16:	0000      	.short	0x0000
   21e18:	0003c9b8 	.word	0x0003c9b8
   21e1c:	0003c9b4 	.word	0x0003c9b4
   21e20:	077cb531 	.word	0x077cb531
   21e24:	0003c9bc 	.word	0x0003c9bc

00021e28 <DALpdAxiCfg_Target_Halt>:
   21e28:	b5ff      	push	{r0, r1, r2, r3, r4, r5, r6, r7, lr}
   21e2a:	0005      	movs	r5, r0
   21e2c:	2000      	movs	r0, #0
   21e2e:	4f29      	ldr	r7, [pc, #164]	; (21ed4 <DALpdAxiCfg_Target_Halt+0xac>)
   21e30:	000c      	movs	r4, r1
   21e32:	2a08      	cmp	r2, #8
   21e34:	b081      	sub	sp, #4
   21e36:	4684      	mov	ip, r0
   21e38:	d134      	bne.n	21ea4 <DALpdAxiCfg_Target_Halt+0x7c>
   21e3a:	6860      	ldr	r0, [r4, #4]
   21e3c:	2800      	cmp	r0, #0
   21e3e:	d031      	beq.n	21ea4 <DALpdAxiCfg_Target_Halt+0x7c>
   21e40:	2601      	movs	r6, #1
   21e42:	4669      	mov	r1, sp
   21e44:	700e      	strb	r6, [r1, #0]
   21e46:	6860      	ldr	r0, [r4, #4]
   21e48:	0032      	movs	r2, r6
   21e4a:	4241      	negs	r1, r0
   21e4c:	4008      	ands	r0, r1
   21e4e:	4922      	ldr	r1, [pc, #136]	; (21ed8 <DALpdAxiCfg_Target_Halt+0xb0>)
   21e50:	4348      	muls	r0, r1
   21e52:	0ec1      	lsrs	r1, r0, #27
   21e54:	4821      	ldr	r0, [pc, #132]	; (21edc <DALpdAxiCfg_Target_Halt+0xb4>)
   21e56:	5c40      	ldrb	r0, [r0, r1]
   21e58:	4669      	mov	r1, sp
   21e5a:	7088      	strb	r0, [r1, #2]
   21e5c:	6823      	ldr	r3, [r4, #0]
   21e5e:	4082      	lsls	r2, r0
   21e60:	2113      	movs	r1, #19
   21e62:	4013      	ands	r3, r2
   21e64:	40c3      	lsrs	r3, r0
   21e66:	d000      	beq.n	21e6a <DALpdAxiCfg_Target_Halt+0x42>
   21e68:	2112      	movs	r1, #18
   21e6a:	4668      	mov	r0, sp
   21e6c:	70c1      	strb	r1, [r0, #3]
   21e6e:	0028      	movs	r0, r5
   21e70:	4669      	mov	r1, sp
   21e72:	f000 fc7b 	bl	2276c <DalpdAxiCfg_HaltOp>
   21e76:	2800      	cmp	r0, #0
   21e78:	4684      	mov	ip, r0
   21e7a:	d10c      	bne.n	21e96 <DALpdAxiCfg_Target_Halt+0x6e>
   21e7c:	4668      	mov	r0, sp
   21e7e:	78c0      	ldrb	r0, [r0, #3]
   21e80:	2812      	cmp	r0, #18
   21e82:	6868      	ldr	r0, [r5, #4]
   21e84:	d018      	beq.n	21eb8 <DALpdAxiCfg_Target_Halt+0x90>
   21e86:	4669      	mov	r1, sp
   21e88:	788b      	ldrb	r3, [r1, #2]
   21e8a:	0080      	lsls	r0, r0, #2
   21e8c:	0031      	movs	r1, r6
   21e8e:	583a      	ldr	r2, [r7, r0]
   21e90:	4099      	lsls	r1, r3
   21e92:	438a      	bics	r2, r1
   21e94:	503a      	str	r2, [r7, r0]
   21e96:	4669      	mov	r1, sp
   21e98:	7889      	ldrb	r1, [r1, #2]
   21e9a:	6860      	ldr	r0, [r4, #4]
   21e9c:	408e      	lsls	r6, r1
   21e9e:	43b0      	bics	r0, r6
   21ea0:	6060      	str	r0, [r4, #4]
   21ea2:	d1cd      	bne.n	21e40 <DALpdAxiCfg_Target_Halt+0x18>
   21ea4:	6868      	ldr	r0, [r5, #4]
   21ea6:	0080      	lsls	r0, r0, #2
   21ea8:	19c1      	adds	r1, r0, r7
   21eaa:	9804      	ldr	r0, [sp, #16]
   21eac:	6001      	str	r1, [r0, #0]
   21eae:	b005      	add	sp, #20
   21eb0:	bcf0      	pop	{r4, r5, r6, r7}
   21eb2:	bc08      	pop	{r3}
   21eb4:	4660      	mov	r0, ip
   21eb6:	4718      	bx	r3
   21eb8:	0082      	lsls	r2, r0, #2
   21eba:	4668      	mov	r0, sp
   21ebc:	7883      	ldrb	r3, [r0, #2]
   21ebe:	0030      	movs	r0, r6
   21ec0:	58b9      	ldr	r1, [r7, r2]
   21ec2:	4098      	lsls	r0, r3
   21ec4:	4381      	bics	r1, r0
   21ec6:	50b9      	str	r1, [r7, r2]
   21ec8:	686a      	ldr	r2, [r5, #4]
   21eca:	0092      	lsls	r2, r2, #2
   21ecc:	4301      	orrs	r1, r0
   21ece:	50b9      	str	r1, [r7, r2]
   21ed0:	e7e1      	b.n	21e96 <DALpdAxiCfg_Target_Halt+0x6e>
   21ed2:	0000      	.short	0x0000
   21ed4:	00041fb8 	.word	0x00041fb8
   21ed8:	077cb531 	.word	0x077cb531
   21edc:	0003c9bc 	.word	0x0003c9bc

00021ee0 <DDR_SYNC_INIT>:
   21ee0:	b510      	push	{r4, lr}
   21ee2:	4a04      	ldr	r2, [pc, #16]	; (21ef4 <DDR_SYNC_INIT+0x14>)
   21ee4:	4904      	ldr	r1, [pc, #16]	; (21ef8 <DDR_SYNC_INIT+0x18>)
   21ee6:	2040      	movs	r0, #64	; 0x40
   21ee8:	f7ff fe76 	bl	21bd8 <DALSYS_SyncCreate>
   21eec:	bc10      	pop	{r4}
   21eee:	bc08      	pop	{r3}
   21ef0:	4718      	bx	r3
   21ef2:	0000      	.short	0x0000
   21ef4:	0003e350 	.word	0x0003e350
   21ef8:	0003e378 	.word	0x0003e378

00021efc <DDR_SYNC_LOCK>:
   21efc:	4803      	ldr	r0, [pc, #12]	; (21f0c <DDR_SYNC_LOCK+0x10>)
   21efe:	b510      	push	{r4, lr}
   21f00:	6a80      	ldr	r0, [r0, #40]	; 0x28
   21f02:	f7ff fe7b 	bl	21bfc <DALSYS_SyncEnter>
   21f06:	bc10      	pop	{r4}
   21f08:	bc08      	pop	{r3}
   21f0a:	4718      	bx	r3
   21f0c:	0003e350 	.word	0x0003e350

00021f10 <DDR_SYNC_UNLOCK>:
   21f10:	4803      	ldr	r0, [pc, #12]	; (21f20 <DDR_SYNC_UNLOCK+0x10>)
   21f12:	b510      	push	{r4, lr}
   21f14:	6a80      	ldr	r0, [r0, #40]	; 0x28
   21f16:	f7ff fe81 	bl	21c1c <DALSYS_SyncLeave>
   21f1a:	bc10      	pop	{r4}
   21f1c:	bc08      	pop	{r3}
   21f1e:	4718      	bx	r3
   21f20:	0003e350 	.word	0x0003e350

00021f24 <DalAxiPD_AggregateSettings>:
   21f24:	b5f0      	push	{r4, r5, r6, r7, lr}
   21f26:	0016      	movs	r6, r2
   21f28:	0004      	movs	r4, r0
   21f2a:	b085      	sub	sp, #20
   21f2c:	001a      	movs	r2, r3
   21f2e:	2000      	movs	r0, #0
   21f30:	9d0a      	ldr	r5, [sp, #40]	; 0x28
   21f32:	9b0b      	ldr	r3, [sp, #44]	; 0x2c
   21f34:	43c0      	mvns	r0, r0
   21f36:	2ed2      	cmp	r6, #210	; 0xd2
   21f38:	9100      	str	r1, [sp, #0]
   21f3a:	d17e      	bne.n	2203a <DalAxiPD_AggregateSettings+0x116>
   21f3c:	2900      	cmp	r1, #0
   21f3e:	d07c      	beq.n	2203a <DalAxiPD_AggregateSettings+0x116>
   21f40:	68a1      	ldr	r1, [r4, #8]
   21f42:	69c9      	ldr	r1, [r1, #28]
   21f44:	42a9      	cmp	r1, r5
   21f46:	d178      	bne.n	2203a <DalAxiPD_AggregateSettings+0x116>
   21f48:	2a00      	cmp	r2, #0
   21f4a:	d076      	beq.n	2203a <DalAxiPD_AggregateSettings+0x116>
   21f4c:	494c      	ldr	r1, [pc, #304]	; (22080 <DalAxiPD_AggregateSettings+0x15c>)
   21f4e:	0020      	movs	r0, r4
   21f50:	f00f fc26 	bl	317a0 <convert_input_buffer>
   21f54:	68a0      	ldr	r0, [r4, #8]
   21f56:	4b4a      	ldr	r3, [pc, #296]	; (22080 <DalAxiPD_AggregateSettings+0x15c>)
   21f58:	6a02      	ldr	r2, [r0, #32]
   21f5a:	6905      	ldr	r5, [r0, #16]
   21f5c:	9900      	ldr	r1, [sp, #0]
   21f5e:	18d7      	adds	r7, r2, r3
   21f60:	2000      	movs	r0, #0
   21f62:	2d00      	cmp	r5, #0
   21f64:	d90e      	bls.n	21f84 <DalAxiPD_AggregateSettings+0x60>
   21f66:	0043      	lsls	r3, r0, #1
   21f68:	5aca      	ldrh	r2, [r1, r3]
   21f6a:	5afe      	ldrh	r6, [r7, r3]
   21f6c:	1992      	adds	r2, r2, r6
   21f6e:	0416      	lsls	r6, r2, #16
   21f70:	0c36      	lsrs	r6, r6, #16
   21f72:	52ce      	strh	r6, [r1, r3]
   21f74:	68a2      	ldr	r2, [r4, #8]
   21f76:	6992      	ldr	r2, [r2, #24]
   21f78:	42b2      	cmp	r2, r6
   21f7a:	d200      	bcs.n	21f7e <DalAxiPD_AggregateSettings+0x5a>
   21f7c:	52ca      	strh	r2, [r1, r3]
   21f7e:	1c40      	adds	r0, r0, #1
   21f80:	42a8      	cmp	r0, r5
   21f82:	d3f0      	bcc.n	21f66 <DalAxiPD_AggregateSettings+0x42>
   21f84:	68a0      	ldr	r0, [r4, #8]
   21f86:	4a3e      	ldr	r2, [pc, #248]	; (22080 <DalAxiPD_AggregateSettings+0x15c>)
   21f88:	6941      	ldr	r1, [r0, #20]
   21f8a:	2500      	movs	r5, #0
   21f8c:	9101      	str	r1, [sp, #4]
   21f8e:	6883      	ldr	r3, [r0, #8]
   21f90:	9302      	str	r3, [sp, #8]
   21f92:	9b00      	ldr	r3, [sp, #0]
   21f94:	9303      	str	r3, [sp, #12]
   21f96:	6a40      	ldr	r0, [r0, #36]	; 0x24
   21f98:	1880      	adds	r0, r0, r2
   21f9a:	2900      	cmp	r1, #0
   21f9c:	4686      	mov	lr, r0
   21f9e:	d93f      	bls.n	22020 <DalAxiPD_AggregateSettings+0xfc>
   21fa0:	68a0      	ldr	r0, [r4, #8]
   21fa2:	2200      	movs	r2, #0
   21fa4:	6880      	ldr	r0, [r0, #8]
   21fa6:	2800      	cmp	r0, #0
   21fa8:	d935      	bls.n	22016 <DalAxiPD_AggregateSettings+0xf2>
   21faa:	203c      	movs	r0, #60	; 0x3c
   21fac:	4368      	muls	r0, r5
   21fae:	9903      	ldr	r1, [sp, #12]
   21fb0:	1840      	adds	r0, r0, r1
   21fb2:	9004      	str	r0, [sp, #16]
   21fb4:	9804      	ldr	r0, [sp, #16]
   21fb6:	2100      	movs	r1, #0
   21fb8:	0093      	lsls	r3, r2, #2
   21fba:	18c0      	adds	r0, r0, r3
   21fbc:	4684      	mov	ip, r0
   21fbe:	68a0      	ldr	r0, [r4, #8]
   21fc0:	4663      	mov	r3, ip
   21fc2:	6880      	ldr	r0, [r0, #8]
   21fc4:	4368      	muls	r0, r5
   21fc6:	1880      	adds	r0, r0, r2
   21fc8:	0040      	lsls	r0, r0, #1
   21fca:	1846      	adds	r6, r0, r1
   21fcc:	0048      	lsls	r0, r1, #1
   21fce:	181b      	adds	r3, r3, r0
   21fd0:	4670      	mov	r0, lr
   21fd2:	5d80      	ldrb	r0, [r0, r6]
   21fd4:	8bdf      	ldrh	r7, [r3, #30]
   21fd6:	0606      	lsls	r6, r0, #24
   21fd8:	d507      	bpl.n	21fea <DalAxiPD_AggregateSettings+0xc6>
   21fda:	0646      	lsls	r6, r0, #25
   21fdc:	0e76      	lsrs	r6, r6, #25
   21fde:	2030      	movs	r0, #48	; 0x30
   21fe0:	4346      	muls	r6, r0
   21fe2:	36ff      	adds	r6, #255	; 0xff
   21fe4:	36ff      	adds	r6, #255	; 0xff
   21fe6:	3602      	adds	r6, #2
   21fe8:	e004      	b.n	21ff4 <DalAxiPD_AggregateSettings+0xd0>
   21fea:	0706      	lsls	r6, r0, #28
   21fec:	0f36      	lsrs	r6, r6, #28
   21fee:	0640      	lsls	r0, r0, #25
   21ff0:	0f40      	lsrs	r0, r0, #29
   21ff2:	4086      	lsls	r6, r0
   21ff4:	19b8      	adds	r0, r7, r6
   21ff6:	0407      	lsls	r7, r0, #16
   21ff8:	0c3f      	lsrs	r7, r7, #16
   21ffa:	83df      	strh	r7, [r3, #30]
   21ffc:	68a6      	ldr	r6, [r4, #8]
   21ffe:	69b6      	ldr	r6, [r6, #24]
   22000:	42b7      	cmp	r7, r6
   22002:	d900      	bls.n	22006 <DalAxiPD_AggregateSettings+0xe2>
   22004:	83de      	strh	r6, [r3, #30]
   22006:	1c49      	adds	r1, r1, #1
   22008:	2902      	cmp	r1, #2
   2200a:	d3d8      	bcc.n	21fbe <DalAxiPD_AggregateSettings+0x9a>
   2200c:	68a0      	ldr	r0, [r4, #8]
   2200e:	1c52      	adds	r2, r2, #1
   22010:	6880      	ldr	r0, [r0, #8]
   22012:	4290      	cmp	r0, r2
   22014:	d8ce      	bhi.n	21fb4 <DalAxiPD_AggregateSettings+0x90>
   22016:	68a0      	ldr	r0, [r4, #8]
   22018:	1c6d      	adds	r5, r5, #1
   2201a:	6940      	ldr	r0, [r0, #20]
   2201c:	42a8      	cmp	r0, r5
   2201e:	d8bf      	bhi.n	21fa0 <DalAxiPD_AggregateSettings+0x7c>
   22020:	9801      	ldr	r0, [sp, #4]
   22022:	2600      	movs	r6, #0
   22024:	2800      	cmp	r0, #0
   22026:	d926      	bls.n	22076 <DalAxiPD_AggregateSettings+0x152>
   22028:	68a0      	ldr	r0, [r4, #8]
   2202a:	9902      	ldr	r1, [sp, #8]
   2202c:	68c2      	ldr	r2, [r0, #12]
   2202e:	2000      	movs	r0, #0
   22030:	2900      	cmp	r1, #0
   22032:	d91c      	bls.n	2206e <DalAxiPD_AggregateSettings+0x14a>
   22034:	213c      	movs	r1, #60	; 0x3c
   22036:	4371      	muls	r1, r6
   22038:	e000      	b.n	2203c <DalAxiPD_AggregateSettings+0x118>
   2203a:	e01d      	b.n	22078 <DalAxiPD_AggregateSettings+0x154>
   2203c:	9b00      	ldr	r3, [sp, #0]
   2203e:	18cf      	adds	r7, r1, r3
   22040:	0081      	lsls	r1, r0, #2
   22042:	1879      	adds	r1, r7, r1
   22044:	8bcb      	ldrh	r3, [r1, #30]
   22046:	2b00      	cmp	r3, #0
   22048:	d00d      	beq.n	22066 <DalAxiPD_AggregateSettings+0x142>
   2204a:	2a00      	cmp	r2, #0
   2204c:	d001      	beq.n	22052 <DalAxiPD_AggregateSettings+0x12e>
   2204e:	1e52      	subs	r2, r2, #1
   22050:	e009      	b.n	22066 <DalAxiPD_AggregateSettings+0x142>
   22052:	8c0d      	ldrh	r5, [r1, #32]
   22054:	195b      	adds	r3, r3, r5
   22056:	68a5      	ldr	r5, [r4, #8]
   22058:	69ad      	ldr	r5, [r5, #24]
   2205a:	42ab      	cmp	r3, r5
   2205c:	d900      	bls.n	22060 <DalAxiPD_AggregateSettings+0x13c>
   2205e:	002b      	movs	r3, r5
   22060:	840b      	strh	r3, [r1, #32]
   22062:	2300      	movs	r3, #0
   22064:	83cb      	strh	r3, [r1, #30]
   22066:	9902      	ldr	r1, [sp, #8]
   22068:	1c40      	adds	r0, r0, #1
   2206a:	4288      	cmp	r0, r1
   2206c:	d3e8      	bcc.n	22040 <DalAxiPD_AggregateSettings+0x11c>
   2206e:	9801      	ldr	r0, [sp, #4]
   22070:	1c76      	adds	r6, r6, #1
   22072:	4286      	cmp	r6, r0
   22074:	d3d8      	bcc.n	22028 <DalAxiPD_AggregateSettings+0x104>
   22076:	2000      	movs	r0, #0
   22078:	b005      	add	sp, #20
   2207a:	bcf0      	pop	{r4, r5, r6, r7}
   2207c:	bc08      	pop	{r3}
   2207e:	4718      	bx	r3
   22080:	0003e5cc 	.word	0x0003e5cc

00022084 <DalAxiPD_DeviceAttach>:
   22084:	b5f8      	push	{r3, r4, r5, r6, r7, lr}
   22086:	000d      	movs	r5, r1
   22088:	4916      	ldr	r1, [pc, #88]	; (220e4 <DalAxiPD_DeviceAttach+0x60>)
   2208a:	d026      	beq.n	220da <DalAxiPD_DeviceAttach+0x56>
   2208c:	2700      	movs	r7, #0
   2208e:	4a16      	ldr	r2, [pc, #88]	; (220e8 <DalAxiPD_DeviceAttach+0x64>)
   22090:	003c      	movs	r4, r7
   22092:	602f      	str	r7, [r5, #0]
   22094:	00a3      	lsls	r3, r4, #2
   22096:	58d3      	ldr	r3, [r2, r3]
   22098:	4283      	cmp	r3, r0
   2209a:	d003      	beq.n	220a4 <DalAxiPD_DeviceAttach+0x20>
   2209c:	1c64      	adds	r4, r4, #1
   2209e:	2c03      	cmp	r4, #3
   220a0:	d3f8      	bcc.n	22094 <DalAxiPD_DeviceAttach+0x10>
   220a2:	e01a      	b.n	220da <DalAxiPD_DeviceAttach+0x56>
   220a4:	2c03      	cmp	r4, #3
   220a6:	d218      	bcs.n	220da <DalAxiPD_DeviceAttach+0x56>
   220a8:	220c      	movs	r2, #12
   220aa:	4354      	muls	r4, r2
   220ac:	4e0f      	ldr	r6, [pc, #60]	; (220ec <DalAxiPD_DeviceAttach+0x68>)
   220ae:	5932      	ldr	r2, [r6, r4]
   220b0:	2a00      	cmp	r2, #0
   220b2:	d110      	bne.n	220d6 <DalAxiPD_DeviceAttach+0x52>
   220b4:	5130      	str	r0, [r6, r4]
   220b6:	19a0      	adds	r0, r4, r6
   220b8:	9000      	str	r0, [sp, #0]
   220ba:	f7fe ff97 	bl	20fec <AxiPD_TargetInitDevice>
   220be:	0001      	movs	r1, r0
   220c0:	d103      	bne.n	220ca <DalAxiPD_DeviceAttach+0x46>
   220c2:	9800      	ldr	r0, [sp, #0]
   220c4:	f000 fbec 	bl	228a0 <DalpdAxiCfg_TargetInitDevice>
   220c8:	0001      	movs	r1, r0
   220ca:	2900      	cmp	r1, #0
   220cc:	d003      	beq.n	220d6 <DalAxiPD_DeviceAttach+0x52>
   220ce:	5137      	str	r7, [r6, r4]
   220d0:	bcf8      	pop	{r3, r4, r5, r6, r7}
   220d2:	bc08      	pop	{r3}
   220d4:	4718      	bx	r3
   220d6:	19a0      	adds	r0, r4, r6
   220d8:	6028      	str	r0, [r5, #0]
   220da:	bcf8      	pop	{r3, r4, r5, r6, r7}
   220dc:	bc08      	pop	{r3}
   220de:	0008      	movs	r0, r1
   220e0:	4718      	bx	r3
   220e2:	0000      	.short	0x0000
   220e4:	ffffffff 	.word	0xffffffff
   220e8:	0003ac5c 	.word	0x0003ac5c
   220ec:	0003e5a8 	.word	0x0003e5a8

000220f0 <DalAxiPD_GetNPADependencies>:
   220f0:	b510      	push	{r4, lr}
   220f2:	2800      	cmp	r0, #0
   220f4:	d006      	beq.n	22104 <DalAxiPD_GetNPADependencies+0x14>
   220f6:	2900      	cmp	r1, #0
   220f8:	d004      	beq.n	22104 <DalAxiPD_GetNPADependencies+0x14>
   220fa:	f7fe ff3b 	bl	20f74 <AxiPD_GetTargetDeps>
   220fe:	bc10      	pop	{r4}
   22100:	bc08      	pop	{r3}
   22102:	4718      	bx	r3
   22104:	bc10      	pop	{r4}
   22106:	bc08      	pop	{r3}
   22108:	2000      	movs	r0, #0
   2210a:	43c0      	mvns	r0, r0
   2210c:	4718      	bx	r3
	...

00022110 <DalAxiPD_Ioctl>:
   22110:	b538      	push	{r3, r4, r5, lr}
   22112:	0e0a      	lsrs	r2, r1, #24
   22114:	466d      	mov	r5, sp
   22116:	702a      	strb	r2, [r5, #0]
   22118:	020a      	lsls	r2, r1, #8
   2211a:	0e12      	lsrs	r2, r2, #24
   2211c:	0004      	movs	r4, r0
   2211e:	0a0b      	lsrs	r3, r1, #8
   22120:	2000      	movs	r0, #0
   22122:	706a      	strb	r2, [r5, #1]
   22124:	43c0      	mvns	r0, r0
   22126:	70ab      	strb	r3, [r5, #2]
   22128:	2a06      	cmp	r2, #6
   2212a:	70e9      	strb	r1, [r5, #3]
   2212c:	d21b      	bcs.n	22166 <DalAxiPD_Ioctl+0x56>
   2212e:	0020      	movs	r0, r4
   22130:	f000 fb78 	bl	22824 <DalpdAxiCfg_MakeClkReqs>
   22134:	466a      	mov	r2, sp
   22136:	7850      	ldrb	r0, [r2, #1]
   22138:	490c      	ldr	r1, [pc, #48]	; (2216c <DalAxiPD_Ioctl+0x5c>)
   2213a:	0080      	lsls	r0, r0, #2
   2213c:	580a      	ldr	r2, [r1, r0]
   2213e:	0020      	movs	r0, r4
   22140:	4669      	mov	r1, sp
   22142:	f00c ff3c 	bl	2efbe <__ARM_common_call_via_r2>
   22146:	0020      	movs	r0, r4
   22148:	f000 fb9c 	bl	22884 <DalpdAxiCfg_RemoveClkReqs>
   2214c:	2007      	movs	r0, #7
   2214e:	466a      	mov	r2, sp
   22150:	7050      	strb	r0, [r2, #1]
   22152:	7811      	ldrb	r1, [r2, #0]
   22154:	78d0      	ldrb	r0, [r2, #3]
   22156:	7892      	ldrb	r2, [r2, #2]
   22158:	0609      	lsls	r1, r1, #24
   2215a:	4308      	orrs	r0, r1
   2215c:	2107      	movs	r1, #7
   2215e:	0409      	lsls	r1, r1, #16
   22160:	0212      	lsls	r2, r2, #8
   22162:	4311      	orrs	r1, r2
   22164:	4308      	orrs	r0, r1
   22166:	bc38      	pop	{r3, r4, r5}
   22168:	bc08      	pop	{r3}
   2216a:	4718      	bx	r3
   2216c:	0003ac68 	.word	0x0003ac68

00022170 <DalAxiPD_ProcessConfig>:
   22170:	b5ff      	push	{r0, r1, r2, r3, r4, r5, r6, r7, lr}
   22172:	2700      	movs	r7, #0
   22174:	b081      	sub	sp, #4
   22176:	9e0a      	ldr	r6, [sp, #40]	; 0x28
   22178:	000d      	movs	r5, r1
   2217a:	001c      	movs	r4, r3
   2217c:	43ff      	mvns	r7, r7
   2217e:	2900      	cmp	r1, #0
   22180:	d011      	beq.n	221a6 <DalAxiPD_ProcessConfig+0x36>
   22182:	2c02      	cmp	r4, #2
   22184:	d20f      	bcs.n	221a6 <DalAxiPD_ProcessConfig+0x36>
   22186:	9801      	ldr	r0, [sp, #4]
   22188:	f000 fb4c 	bl	22824 <DalpdAxiCfg_MakeClkReqs>
   2218c:	4908      	ldr	r1, [pc, #32]	; (221b0 <DalAxiPD_ProcessConfig+0x40>)
   2218e:	00a0      	lsls	r0, r4, #2
   22190:	580c      	ldr	r4, [r1, r0]
   22192:	9a03      	ldr	r2, [sp, #12]
   22194:	9801      	ldr	r0, [sp, #4]
   22196:	0033      	movs	r3, r6
   22198:	0029      	movs	r1, r5
   2219a:	f00c ff12 	bl	2efc2 <__ARM_common_call_via_r4>
   2219e:	0007      	movs	r7, r0
   221a0:	9801      	ldr	r0, [sp, #4]
   221a2:	f000 fb6f 	bl	22884 <DalpdAxiCfg_RemoveClkReqs>
   221a6:	0038      	movs	r0, r7
   221a8:	b005      	add	sp, #20
   221aa:	bcf0      	pop	{r4, r5, r6, r7}
   221ac:	bc08      	pop	{r3}
   221ae:	4718      	bx	r3
   221b0:	0003c9dc 	.word	0x0003c9dc

000221b4 <DalAxiPD_ProgramSettings>:
   221b4:	b5f7      	push	{r0, r1, r2, r4, r5, r6, r7, lr}
   221b6:	b0c0      	sub	sp, #256	; 0x100
   221b8:	2ad2      	cmp	r2, #210	; 0xd2
   221ba:	9001      	str	r0, [sp, #4]
   221bc:	d13f      	bne.n	2223e <DalAxiPD_ProgramSettings+0x8a>
   221be:	9841      	ldr	r0, [sp, #260]	; 0x104
   221c0:	2800      	cmp	r0, #0
   221c2:	d03c      	beq.n	2223e <DalAxiPD_ProgramSettings+0x8a>
   221c4:	0007      	movs	r7, r0
   221c6:	9005      	str	r0, [sp, #20]
   221c8:	9801      	ldr	r0, [sp, #4]
   221ca:	2500      	movs	r5, #0
   221cc:	6880      	ldr	r0, [r0, #8]
   221ce:	002c      	movs	r4, r5
   221d0:	6900      	ldr	r0, [r0, #16]
   221d2:	2800      	cmp	r0, #0
   221d4:	d91a      	bls.n	2220c <DalAxiPD_ProgramSettings+0x58>
   221d6:	9801      	ldr	r0, [sp, #4]
   221d8:	6886      	ldr	r6, [r0, #8]
   221da:	0060      	lsls	r0, r4, #1
   221dc:	5a38      	ldrh	r0, [r7, r0]
   221de:	6871      	ldr	r1, [r6, #4]
   221e0:	0500      	lsls	r0, r0, #20
   221e2:	f7fe fc85 	bl	20af0 <__rt_SIGFPE+0x10>
   221e6:	f00c ff2f 	bl	2f048 <__ARM_common_udiv_10+0x1c>
   221ea:	428d      	cmp	r5, r1
   221ec:	d800      	bhi.n	221f0 <DalAxiPD_ProgramSettings+0x3c>
   221ee:	000d      	movs	r5, r1
   221f0:	6af0      	ldr	r0, [r6, #44]	; 0x2c
   221f2:	2800      	cmp	r0, #0
   221f4:	d004      	beq.n	22200 <DalAxiPD_ProgramSettings+0x4c>
   221f6:	0022      	movs	r2, r4
   221f8:	230c      	movs	r3, #12
   221fa:	435a      	muls	r2, r3
   221fc:	3208      	adds	r2, #8
   221fe:	5081      	str	r1, [r0, r2]
   22200:	9801      	ldr	r0, [sp, #4]
   22202:	1c64      	adds	r4, r4, #1
   22204:	6880      	ldr	r0, [r0, #8]
   22206:	6900      	ldr	r0, [r0, #16]
   22208:	42a0      	cmp	r0, r4
   2220a:	d8e4      	bhi.n	221d6 <DalAxiPD_ProgramSettings+0x22>
   2220c:	9801      	ldr	r0, [sp, #4]
   2220e:	2100      	movs	r1, #0
   22210:	6880      	ldr	r0, [r0, #8]
   22212:	6a80      	ldr	r0, [r0, #40]	; 0x28
   22214:	6085      	str	r5, [r0, #8]
   22216:	9801      	ldr	r0, [sp, #4]
   22218:	f7fe feb4 	bl	20f84 <AxiPD_ReqFreq>
   2221c:	2000      	movs	r0, #0
   2221e:	9004      	str	r0, [sp, #16]
   22220:	9801      	ldr	r0, [sp, #4]
   22222:	6880      	ldr	r0, [r0, #8]
   22224:	6940      	ldr	r0, [r0, #20]
   22226:	2800      	cmp	r0, #0
   22228:	d97e      	bls.n	22328 <DalAxiPD_ProgramSettings+0x174>
   2222a:	9841      	ldr	r0, [sp, #260]	; 0x104
   2222c:	9b04      	ldr	r3, [sp, #16]
   2222e:	9000      	str	r0, [sp, #0]
   22230:	9801      	ldr	r0, [sp, #4]
   22232:	aa07      	add	r2, sp, #28
   22234:	a90b      	add	r1, sp, #44	; 0x2c
   22236:	f7fe fe7f 	bl	20f38 <AxiPD_GetSlaveIndexEx>
   2223a:	2800      	cmp	r0, #0
   2223c:	d005      	beq.n	2224a <DalAxiPD_ProgramSettings+0x96>
   2223e:	b043      	add	sp, #268	; 0x10c
   22240:	bcf0      	pop	{r4, r5, r6, r7}
   22242:	bc08      	pop	{r3}
   22244:	2000      	movs	r0, #0
   22246:	43c0      	mvns	r0, r0
   22248:	4718      	bx	r3
   2224a:	9801      	ldr	r0, [sp, #4]
   2224c:	9f04      	ldr	r7, [sp, #16]
   2224e:	9000      	str	r0, [sp, #0]
   22250:	9807      	ldr	r0, [sp, #28]
   22252:	9c05      	ldr	r4, [sp, #20]
   22254:	0040      	lsls	r0, r0, #1
   22256:	5a20      	ldrh	r0, [r4, r0]
   22258:	2178      	movs	r1, #120	; 0x78
   2225a:	ad2a      	add	r5, sp, #168	; 0xa8
   2225c:	9006      	str	r0, [sp, #24]
   2225e:	a80c      	add	r0, sp, #48	; 0x30
   22260:	f7fe fa82 	bl	20768 <_memset+0x3c>
   22264:	4951      	ldr	r1, [pc, #324]	; (223ac <DalAxiPD_ProgramSettings+0x1f8>)
   22266:	aa02      	add	r2, sp, #8
   22268:	c903      	ldmia	r1, {r0, r1}
   2226a:	c203      	stmia	r2!, {r0, r1}
   2226c:	2154      	movs	r1, #84	; 0x54
   2226e:	0028      	movs	r0, r5
   22270:	f7fe fa7a 	bl	20768 <_memset+0x3c>
   22274:	9806      	ldr	r0, [sp, #24]
   22276:	2800      	cmp	r0, #0
   22278:	d07f      	beq.n	2237a <DalAxiPD_ProgramSettings+0x1c6>
   2227a:	9800      	ldr	r0, [sp, #0]
   2227c:	2600      	movs	r6, #0
   2227e:	6880      	ldr	r0, [r0, #8]
   22280:	6880      	ldr	r0, [r0, #8]
   22282:	2800      	cmp	r0, #0
   22284:	d931      	bls.n	222ea <DalAxiPD_ProgramSettings+0x136>
   22286:	203c      	movs	r0, #60	; 0x3c
   22288:	4347      	muls	r7, r0
   2228a:	1938      	adds	r0, r7, r4
   2228c:	9008      	str	r0, [sp, #32]
   2228e:	9908      	ldr	r1, [sp, #32]
   22290:	00b0      	lsls	r0, r6, #2
   22292:	2400      	movs	r4, #0
   22294:	900a      	str	r0, [sp, #40]	; 0x28
   22296:	1808      	adds	r0, r1, r0
   22298:	9009      	str	r0, [sp, #36]	; 0x24
   2229a:	0061      	lsls	r1, r4, #1
   2229c:	1847      	adds	r7, r0, r1
   2229e:	8bf8      	ldrh	r0, [r7, #30]
   222a0:	2800      	cmp	r0, #0
   222a2:	d017      	beq.n	222d4 <DalAxiPD_ProgramSettings+0x120>
   222a4:	9800      	ldr	r0, [sp, #0]
   222a6:	0031      	movs	r1, r6
   222a8:	f7fe fe0e 	bl	20ec8 <AxiPD_GetMasterTokensPerClk>
   222ac:	9a06      	ldr	r2, [sp, #24]
   222ae:	8bf9      	ldrh	r1, [r7, #30]
   222b0:	4350      	muls	r0, r2
   222b2:	f7fe fc1d 	bl	20af0 <__rt_SIGFPE+0x10>
   222b6:	0001      	movs	r1, r0
   222b8:	203c      	movs	r0, #60	; 0x3c
   222ba:	0022      	movs	r2, r4
   222bc:	4342      	muls	r2, r0
   222be:	a80c      	add	r0, sp, #48	; 0x30
   222c0:	1812      	adds	r2, r2, r0
   222c2:	980a      	ldr	r0, [sp, #40]	; 0x28
   222c4:	ab02      	add	r3, sp, #8
   222c6:	5011      	str	r1, [r2, r0]
   222c8:	00a2      	lsls	r2, r4, #2
   222ca:	5898      	ldr	r0, [r3, r2]
   222cc:	4281      	cmp	r1, r0
   222ce:	d800      	bhi.n	222d2 <DalAxiPD_ProgramSettings+0x11e>
   222d0:	0008      	movs	r0, r1
   222d2:	5098      	str	r0, [r3, r2]
   222d4:	1c64      	adds	r4, r4, #1
   222d6:	2c02      	cmp	r4, #2
   222d8:	d201      	bcs.n	222de <DalAxiPD_ProgramSettings+0x12a>
   222da:	9809      	ldr	r0, [sp, #36]	; 0x24
   222dc:	e7dd      	b.n	2229a <DalAxiPD_ProgramSettings+0xe6>
   222de:	9800      	ldr	r0, [sp, #0]
   222e0:	1c76      	adds	r6, r6, #1
   222e2:	6880      	ldr	r0, [r0, #8]
   222e4:	6880      	ldr	r0, [r0, #8]
   222e6:	42b0      	cmp	r0, r6
   222e8:	d8d1      	bhi.n	2228e <DalAxiPD_ProgramSettings+0xda>
   222ea:	9802      	ldr	r0, [sp, #8]
   222ec:	1c40      	adds	r0, r0, #1
   222ee:	d006      	beq.n	222fe <DalAxiPD_ProgramSettings+0x14a>
   222f0:	9902      	ldr	r1, [sp, #8]
   222f2:	20ff      	movs	r0, #255	; 0xff
   222f4:	010a      	lsls	r2, r1, #4
   222f6:	1a51      	subs	r1, r2, r1
   222f8:	29ff      	cmp	r1, #255	; 0xff
   222fa:	d800      	bhi.n	222fe <DalAxiPD_ProgramSettings+0x14a>
   222fc:	0008      	movs	r0, r1
   222fe:	64e8      	str	r0, [r5, #76]	; 0x4c
   22300:	9803      	ldr	r0, [sp, #12]
   22302:	1c40      	adds	r0, r0, #1
   22304:	d006      	beq.n	22314 <DalAxiPD_ProgramSettings+0x160>
   22306:	9903      	ldr	r1, [sp, #12]
   22308:	4829      	ldr	r0, [pc, #164]	; (223b0 <DalAxiPD_ProgramSettings+0x1fc>)
   2230a:	020a      	lsls	r2, r1, #8
   2230c:	1a51      	subs	r1, r2, r1
   2230e:	4281      	cmp	r1, r0
   22310:	d800      	bhi.n	22314 <DalAxiPD_ProgramSettings+0x160>
   22312:	0008      	movs	r0, r1
   22314:	6528      	str	r0, [r5, #80]	; 0x50
   22316:	9800      	ldr	r0, [sp, #0]
   22318:	2400      	movs	r4, #0
   2231a:	6880      	ldr	r0, [r0, #8]
   2231c:	0026      	movs	r6, r4
   2231e:	6880      	ldr	r0, [r0, #8]
   22320:	2800      	cmp	r0, #0
   22322:	d92a      	bls.n	2237a <DalAxiPD_ProgramSettings+0x1c6>
   22324:	00a7      	lsls	r7, r4, #2
   22326:	e000      	b.n	2232a <DalAxiPD_ProgramSettings+0x176>
   22328:	e037      	b.n	2239a <DalAxiPD_ProgramSettings+0x1e6>
   2232a:	a80c      	add	r0, sp, #48	; 0x30
   2232c:	59c1      	ldr	r1, [r0, r7]
   2232e:	2900      	cmp	r1, #0
   22330:	d00e      	beq.n	22350 <DalAxiPD_ProgramSettings+0x19c>
   22332:	6ce8      	ldr	r0, [r5, #76]	; 0x4c
   22334:	1840      	adds	r0, r0, r1
   22336:	1e40      	subs	r0, r0, #1
   22338:	f7fe fbda 	bl	20af0 <__rt_SIGFPE+0x10>
   2233c:	2101      	movs	r1, #1
   2233e:	0700      	lsls	r0, r0, #28
   22340:	03e2      	lsls	r2, r4, #15
   22342:	0309      	lsls	r1, r1, #12
   22344:	0f00      	lsrs	r0, r0, #28
   22346:	1851      	adds	r1, r2, r1
   22348:	4308      	orrs	r0, r1
   2234a:	00b1      	lsls	r1, r6, #2
   2234c:	1c76      	adds	r6, r6, #1
   2234e:	5068      	str	r0, [r5, r1]
   22350:	a80c      	add	r0, sp, #48	; 0x30
   22352:	1838      	adds	r0, r7, r0
   22354:	6bc1      	ldr	r1, [r0, #60]	; 0x3c
   22356:	2900      	cmp	r1, #0
   22358:	d006      	beq.n	22368 <DalAxiPD_ProgramSettings+0x1b4>
   2235a:	6d28      	ldr	r0, [r5, #80]	; 0x50
   2235c:	1840      	adds	r0, r0, r1
   2235e:	1e40      	subs	r0, r0, #1
   22360:	f7fe fbc6 	bl	20af0 <__rt_SIGFPE+0x10>
   22364:	e001      	b.n	2236a <DalAxiPD_ProgramSettings+0x1b6>
   22366:	e008      	b.n	2237a <DalAxiPD_ProgramSettings+0x1c6>
   22368:	2000      	movs	r0, #0
   2236a:	1979      	adds	r1, r7, r5
   2236c:	6108      	str	r0, [r1, #16]
   2236e:	9800      	ldr	r0, [sp, #0]
   22370:	1c64      	adds	r4, r4, #1
   22372:	6880      	ldr	r0, [r0, #8]
   22374:	6880      	ldr	r0, [r0, #8]
   22376:	42a0      	cmp	r0, r4
   22378:	d8d4      	bhi.n	22324 <DalAxiPD_ProgramSettings+0x170>
   2237a:	9801      	ldr	r0, [sp, #4]
   2237c:	990b      	ldr	r1, [sp, #44]	; 0x2c
   2237e:	6840      	ldr	r0, [r0, #4]
   22380:	aa2a      	add	r2, sp, #168	; 0xa8
   22382:	f002 fc5b 	bl	24c3c <HAL_axifab_ProgramSettings>
   22386:	9804      	ldr	r0, [sp, #16]
   22388:	1c40      	adds	r0, r0, #1
   2238a:	9004      	str	r0, [sp, #16]
   2238c:	9801      	ldr	r0, [sp, #4]
   2238e:	6880      	ldr	r0, [r0, #8]
   22390:	6941      	ldr	r1, [r0, #20]
   22392:	9804      	ldr	r0, [sp, #16]
   22394:	4281      	cmp	r1, r0
   22396:	d900      	bls.n	2239a <DalAxiPD_ProgramSettings+0x1e6>
   22398:	e747      	b.n	2222a <DalAxiPD_ProgramSettings+0x76>
   2239a:	9801      	ldr	r0, [sp, #4]
   2239c:	2101      	movs	r1, #1
   2239e:	f7fe fdf1 	bl	20f84 <AxiPD_ReqFreq>
   223a2:	b043      	add	sp, #268	; 0x10c
   223a4:	bcf0      	pop	{r4, r5, r6, r7}
   223a6:	bc08      	pop	{r3}
   223a8:	2000      	movs	r0, #0
   223aa:	4718      	bx	r3
   223ac:	00039860 	.word	0x00039860
   223b0:	00000fff 	.word	0x00000fff

000223b4 <DalRPMFW_DriverInit>:
   223b4:	b5f8      	push	{r3, r4, r5, r6, r7, lr}
   223b6:	f005 f8e1 	bl	2757c <RPMFW_Internal_Init>
   223ba:	0005      	movs	r5, r0
   223bc:	d133      	bne.n	22426 <DalRPMFW_DriverInit+0x72>
   223be:	4e1b      	ldr	r6, [pc, #108]	; (2242c <DalRPMFW_DriverInit+0x78>)
   223c0:	6830      	ldr	r0, [r6, #0]
   223c2:	f7ff fc1b 	bl	21bfc <DALSYS_SyncEnter>
   223c6:	2000      	movs	r0, #0
   223c8:	f006 fae0 	bl	2898c <RPM_SetStatusSequence>
   223cc:	4f18      	ldr	r7, [pc, #96]	; (22430 <DalRPMFW_DriverInit+0x7c>)
   223ce:	2400      	movs	r4, #0
   223d0:	00a0      	lsls	r0, r4, #2
   223d2:	5838      	ldr	r0, [r7, r0]
   223d4:	0021      	movs	r1, r4
   223d6:	2800      	cmp	r0, #0
   223d8:	d003      	beq.n	223e2 <DalRPMFW_DriverInit+0x2e>
   223da:	f005 fada 	bl	27992 <RPMFW_Master_Init>
   223de:	0005      	movs	r5, r0
   223e0:	d113      	bne.n	2240a <DalRPMFW_DriverInit+0x56>
   223e2:	1c64      	adds	r4, r4, #1
   223e4:	2c06      	cmp	r4, #6
   223e6:	dbf3      	blt.n	223d0 <DalRPMFW_DriverInit+0x1c>
   223e8:	2d00      	cmp	r5, #0
   223ea:	d10e      	bne.n	2240a <DalRPMFW_DriverInit+0x56>
   223ec:	f004 fe6e 	bl	270cc <RPMFW_Drivers_Init>
   223f0:	0005      	movs	r5, r0
   223f2:	d10a      	bne.n	2240a <DalRPMFW_DriverInit+0x56>
   223f4:	f005 f862 	bl	274bc <RPMFW_Handler_Init>
   223f8:	0005      	movs	r5, r0
   223fa:	d106      	bne.n	2240a <DalRPMFW_DriverInit+0x56>
   223fc:	f005 f8f2 	bl	275e4 <RPMFW_Invalidate_Init>
   22400:	0005      	movs	r5, r0
   22402:	d102      	bne.n	2240a <DalRPMFW_DriverInit+0x56>
   22404:	f005 feb0 	bl	28168 <RPMFW_Trigger_Init>
   22408:	0005      	movs	r5, r0
   2240a:	6830      	ldr	r0, [r6, #0]
   2240c:	f7ff fc06 	bl	21c1c <DALSYS_SyncLeave>
   22410:	2d00      	cmp	r5, #0
   22412:	d007      	beq.n	22424 <DalRPMFW_DriverInit+0x70>
   22414:	f7fe fb86 	bl	20b24 <__aeabi_uidiv+0x30>
   22418:	4678      	mov	r0, pc
   2241a:	2300      	movs	r3, #0
   2241c:	001a      	movs	r2, r3
   2241e:	0019      	movs	r1, r3
   22420:	f010 f90a 	bl	32638 <err_fatal_handler>
   22424:	0028      	movs	r0, r5
   22426:	bcf8      	pop	{r3, r4, r5, r6, r7}
   22428:	bc08      	pop	{r3}
   2242a:	4718      	bx	r3
   2242c:	0003af2c 	.word	0x0003af2c
   22430:	0003af08 	.word	0x0003af08

00022434 <DalRPMFW_GetMasterRequest>:
   22434:	2906      	cmp	r1, #6
   22436:	d302      	bcc.n	2243e <DalRPMFW_GetMasterRequest+0xa>
   22438:	2000      	movs	r0, #0
   2243a:	43c0      	mvns	r0, r0
   2243c:	4770      	bx	lr
   2243e:	b5ff      	push	{r0, r1, r2, r3, r4, r5, r6, r7, lr}
   22440:	4d0c      	ldr	r5, [pc, #48]	; (22474 <DalRPMFW_GetMasterRequest+0x40>)
   22442:	b081      	sub	sp, #4
   22444:	9e0a      	ldr	r6, [sp, #40]	; 0x28
   22446:	6828      	ldr	r0, [r5, #0]
   22448:	000c      	movs	r4, r1
   2244a:	0017      	movs	r7, r2
   2244c:	f7ff fbd6 	bl	21bfc <DALSYS_SyncEnter>
   22450:	4909      	ldr	r1, [pc, #36]	; (22478 <DalRPMFW_GetMasterRequest+0x44>)
   22452:	00a0      	lsls	r0, r4, #2
   22454:	5808      	ldr	r0, [r1, r0]
   22456:	9a04      	ldr	r2, [sp, #16]
   22458:	0033      	movs	r3, r6
   2245a:	0039      	movs	r1, r7
   2245c:	f005 f9fc 	bl	27858 <RPMFW_Master_GetEffectiveRequest>
   22460:	0004      	movs	r4, r0
   22462:	6828      	ldr	r0, [r5, #0]
   22464:	f7ff fbda 	bl	21c1c <DALSYS_SyncLeave>
   22468:	0020      	movs	r0, r4
   2246a:	b005      	add	sp, #20
   2246c:	bcf0      	pop	{r4, r5, r6, r7}
   2246e:	bc08      	pop	{r3}
   22470:	4718      	bx	r3
   22472:	0000      	.short	0x0000
   22474:	0003af2c 	.word	0x0003af2c
   22478:	0003af08 	.word	0x0003af08

0002247c <DalRPMFW_GetMasterRequestAddr>:
   2247c:	2906      	cmp	r1, #6
   2247e:	d302      	bcc.n	22486 <DalRPMFW_GetMasterRequestAddr+0xa>
   22480:	2000      	movs	r0, #0
   22482:	43c0      	mvns	r0, r0
   22484:	4770      	bx	lr
   22486:	b5ff      	push	{r0, r1, r2, r3, r4, r5, r6, r7, lr}
   22488:	4d0c      	ldr	r5, [pc, #48]	; (224bc <DalRPMFW_GetMasterRequestAddr+0x40>)
   2248a:	b081      	sub	sp, #4
   2248c:	9e0a      	ldr	r6, [sp, #40]	; 0x28
   2248e:	6828      	ldr	r0, [r5, #0]
   22490:	000c      	movs	r4, r1
   22492:	0017      	movs	r7, r2
   22494:	f7ff fbb2 	bl	21bfc <DALSYS_SyncEnter>
   22498:	4909      	ldr	r1, [pc, #36]	; (224c0 <DalRPMFW_GetMasterRequestAddr+0x44>)
   2249a:	00a0      	lsls	r0, r4, #2
   2249c:	5808      	ldr	r0, [r1, r0]
   2249e:	9a04      	ldr	r2, [sp, #16]
   224a0:	0033      	movs	r3, r6
   224a2:	0039      	movs	r1, r7
   224a4:	f005 fa07 	bl	278b6 <RPMFW_Master_GetEffectiveRequestAddr>
   224a8:	0004      	movs	r4, r0
   224aa:	6828      	ldr	r0, [r5, #0]
   224ac:	f7ff fbb6 	bl	21c1c <DALSYS_SyncLeave>
   224b0:	0020      	movs	r0, r4
   224b2:	b005      	add	sp, #20
   224b4:	bcf0      	pop	{r4, r5, r6, r7}
   224b6:	bc08      	pop	{r3}
   224b8:	4718      	bx	r3
   224ba:	0000      	.short	0x0000
   224bc:	0003af2c 	.word	0x0003af2c
   224c0:	0003af08 	.word	0x0003af08

000224c4 <DalRPMFW_RegisterDriver>:
   224c4:	b5ff      	push	{r0, r1, r2, r3, r4, r5, r6, r7, lr}
   224c6:	000f      	movs	r7, r1
   224c8:	2600      	movs	r6, #0
   224ca:	0015      	movs	r5, r2
   224cc:	1e71      	subs	r1, r6, #1
   224ce:	2a00      	cmp	r2, #0
   224d0:	b081      	sub	sp, #4
   224d2:	d024      	beq.n	2251e <DalRPMFW_RegisterDriver+0x5a>
   224d4:	9804      	ldr	r0, [sp, #16]
   224d6:	2800      	cmp	r0, #0
   224d8:	d021      	beq.n	2251e <DalRPMFW_RegisterDriver+0x5a>
   224da:	4815      	ldr	r0, [pc, #84]	; (22530 <DalRPMFW_RegisterDriver+0x6c>)
   224dc:	6800      	ldr	r0, [r0, #0]
   224de:	f7ff fb8d 	bl	21bfc <DALSYS_SyncEnter>
   224e2:	2400      	movs	r4, #0
   224e4:	2f00      	cmp	r7, #0
   224e6:	d911      	bls.n	2250c <DalRPMFW_RegisterDriver+0x48>
   224e8:	00a0      	lsls	r0, r4, #2
   224ea:	5828      	ldr	r0, [r5, r0]
   224ec:	9904      	ldr	r1, [sp, #16]
   224ee:	f004 fdef 	bl	270d0 <RPMFW_Drivers_RegisterDriver>
   224f2:	0006      	movs	r6, r0
   224f4:	d018      	beq.n	22528 <DalRPMFW_RegisterDriver+0x64>
   224f6:	2c00      	cmp	r4, #0
   224f8:	d008      	beq.n	2250c <DalRPMFW_RegisterDriver+0x48>
   224fa:	0021      	movs	r1, r4
   224fc:	0088      	lsls	r0, r1, #2
   224fe:	1f00      	subs	r0, r0, #4
   22500:	5828      	ldr	r0, [r5, r0]
   22502:	1e64      	subs	r4, r4, #1
   22504:	f004 fd84 	bl	27010 <RPMFW_Drivers_DeregisterDriver>
   22508:	2c00      	cmp	r4, #0
   2250a:	d1f6      	bne.n	224fa <DalRPMFW_RegisterDriver+0x36>
   2250c:	4808      	ldr	r0, [pc, #32]	; (22530 <DalRPMFW_RegisterDriver+0x6c>)
   2250e:	6800      	ldr	r0, [r0, #0]
   22510:	f7ff fb84 	bl	21c1c <DALSYS_SyncLeave>
   22514:	0030      	movs	r0, r6
   22516:	b005      	add	sp, #20
   22518:	bcf0      	pop	{r4, r5, r6, r7}
   2251a:	bc08      	pop	{r3}
   2251c:	4718      	bx	r3
   2251e:	b005      	add	sp, #20
   22520:	bcf0      	pop	{r4, r5, r6, r7}
   22522:	bc08      	pop	{r3}
   22524:	0008      	movs	r0, r1
   22526:	4718      	bx	r3
   22528:	1c64      	adds	r4, r4, #1
   2252a:	42bc      	cmp	r4, r7
   2252c:	d3dc      	bcc.n	224e8 <DalRPMFW_RegisterDriver+0x24>
   2252e:	e7ed      	b.n	2250c <DalRPMFW_RegisterDriver+0x48>
   22530:	0003af2c 	.word	0x0003af2c

00022534 <DalRPMFW_RegisterNPADriver>:
   22534:	0008      	movs	r0, r1
   22536:	b510      	push	{r4, lr}
   22538:	0011      	movs	r1, r2
   2253a:	f004 fdf7 	bl	2712c <RPMFW_Drivers_RegisterNPADriver>
   2253e:	bc10      	pop	{r4}
   22540:	bc08      	pop	{r3}
   22542:	4718      	bx	r3

00022544 <DalRPMFW_SPM_RegisterInterrupt>:
   22544:	b470      	push	{r4, r5, r6}
   22546:	0004      	movs	r4, r0
   22548:	2000      	movs	r0, #0
   2254a:	43c0      	mvns	r0, r0
   2254c:	0003      	movs	r3, r0
   2254e:	2900      	cmp	r1, #0
   22550:	d024      	beq.n	2259c <DalRPMFW_SPM_RegisterInterrupt+0x58>
   22552:	2200      	movs	r2, #0
   22554:	2501      	movs	r5, #1
   22556:	40a5      	lsls	r5, r4
   22558:	4c11      	ldr	r4, [pc, #68]	; (225a0 <DalRPMFW_SPM_RegisterInterrupt+0x5c>)
   2255a:	e001      	b.n	22560 <DalRPMFW_SPM_RegisterInterrupt+0x1c>
   2255c:	2b00      	cmp	r3, #0
   2255e:	da04      	bge.n	2256a <DalRPMFW_SPM_RegisterInterrupt+0x26>
   22560:	00d6      	lsls	r6, r2, #3
   22562:	1936      	adds	r6, r6, r4
   22564:	6876      	ldr	r6, [r6, #4]
   22566:	2e00      	cmp	r6, #0
   22568:	d008      	beq.n	2257c <DalRPMFW_SPM_RegisterInterrupt+0x38>
   2256a:	00d6      	lsls	r6, r2, #3
   2256c:	1936      	adds	r6, r6, r4
   2256e:	6876      	ldr	r6, [r6, #4]
   22570:	428e      	cmp	r6, r1
   22572:	d005      	beq.n	22580 <DalRPMFW_SPM_RegisterInterrupt+0x3c>
   22574:	1c52      	adds	r2, r2, #1
   22576:	2a06      	cmp	r2, #6
   22578:	dbf0      	blt.n	2255c <DalRPMFW_SPM_RegisterInterrupt+0x18>
   2257a:	e008      	b.n	2258e <DalRPMFW_SPM_RegisterInterrupt+0x4a>
   2257c:	0013      	movs	r3, r2
   2257e:	e7f9      	b.n	22574 <DalRPMFW_SPM_RegisterInterrupt+0x30>
   22580:	2a06      	cmp	r2, #6
   22582:	da04      	bge.n	2258e <DalRPMFW_SPM_RegisterInterrupt+0x4a>
   22584:	00d0      	lsls	r0, r2, #3
   22586:	5821      	ldr	r1, [r4, r0]
   22588:	4329      	orrs	r1, r5
   2258a:	5021      	str	r1, [r4, r0]
   2258c:	e005      	b.n	2259a <DalRPMFW_SPM_RegisterInterrupt+0x56>
   2258e:	2b00      	cmp	r3, #0
   22590:	db04      	blt.n	2259c <DalRPMFW_SPM_RegisterInterrupt+0x58>
   22592:	00d8      	lsls	r0, r3, #3
   22594:	5025      	str	r5, [r4, r0]
   22596:	1900      	adds	r0, r0, r4
   22598:	6041      	str	r1, [r0, #4]
   2259a:	2000      	movs	r0, #0
   2259c:	bc70      	pop	{r4, r5, r6}
   2259e:	4770      	bx	lr
   225a0:	0003e66c 	.word	0x0003e66c

000225a4 <DalRPMFW_SetStatus>:
   225a4:	b5f0      	push	{r4, r5, r6, r7, lr}
   225a6:	000e      	movs	r6, r1
   225a8:	b083      	sub	sp, #12
   225aa:	0017      	movs	r7, r2
   225ac:	001c      	movs	r4, r3
   225ae:	0030      	movs	r0, r6
   225b0:	a901      	add	r1, sp, #4
   225b2:	f006 f80f 	bl	285d4 <RPM_GetStatusSize>
   225b6:	2800      	cmp	r0, #0
   225b8:	d138      	bne.n	2262c <DalRPMFW_SetStatus+0x88>
   225ba:	2e5a      	cmp	r6, #90	; 0x5a
   225bc:	da36      	bge.n	2262c <DalRPMFW_SetStatus+0x88>
   225be:	9801      	ldr	r0, [sp, #4]
   225c0:	42b8      	cmp	r0, r7
   225c2:	d133      	bne.n	2262c <DalRPMFW_SetStatus+0x88>
   225c4:	2c00      	cmp	r4, #0
   225c6:	d031      	beq.n	2262c <DalRPMFW_SetStatus+0x88>
   225c8:	4d1b      	ldr	r5, [pc, #108]	; (22638 <DalRPMFW_SetStatus+0x94>)
   225ca:	6828      	ldr	r0, [r5, #0]
   225cc:	f7ff fb16 	bl	21bfc <DALSYS_SyncEnter>
   225d0:	0039      	movs	r1, r7
   225d2:	0030      	movs	r0, r6
   225d4:	aa02      	add	r2, sp, #8
   225d6:	f005 ffc4 	bl	28562 <RPM_GetResourceStatusAddr>
   225da:	2800      	cmp	r0, #0
   225dc:	d007      	beq.n	225ee <DalRPMFW_SetStatus+0x4a>
   225de:	f7fe faa1 	bl	20b24 <__aeabi_uidiv+0x30>
   225e2:	4678      	mov	r0, pc
   225e4:	2300      	movs	r3, #0
   225e6:	001a      	movs	r2, r3
   225e8:	0019      	movs	r1, r3
   225ea:	f010 f825 	bl	32638 <err_fatal_handler>
   225ee:	4813      	ldr	r0, [pc, #76]	; (2263c <DalRPMFW_SetStatus+0x98>)
   225f0:	9b02      	ldr	r3, [sp, #8]
   225f2:	003a      	movs	r2, r7
   225f4:	0031      	movs	r1, r6
   225f6:	9400      	str	r4, [sp, #0]
   225f8:	f004 ff8a 	bl	27510 <RPMFW_Hash_Update>
   225fc:	f005 ffe6 	bl	285cc <RPM_GetStatusSequence>
   22600:	1c40      	adds	r0, r0, #1
   22602:	f006 f9c3 	bl	2898c <RPM_SetStatusSequence>
   22606:	0022      	movs	r2, r4
   22608:	0039      	movs	r1, r7
   2260a:	0030      	movs	r0, r6
   2260c:	f006 f998 	bl	28940 <RPM_SetResourceStatus>
   22610:	0004      	movs	r4, r0
   22612:	f005 ffdb 	bl	285cc <RPM_GetStatusSequence>
   22616:	1c40      	adds	r0, r0, #1
   22618:	f006 f9b8 	bl	2898c <RPM_SetStatusSequence>
   2261c:	6828      	ldr	r0, [r5, #0]
   2261e:	f7ff fafd 	bl	21c1c <DALSYS_SyncLeave>
   22622:	0020      	movs	r0, r4
   22624:	b003      	add	sp, #12
   22626:	bcf0      	pop	{r4, r5, r6, r7}
   22628:	bc08      	pop	{r3}
   2262a:	4718      	bx	r3
   2262c:	b003      	add	sp, #12
   2262e:	bcf0      	pop	{r4, r5, r6, r7}
   22630:	bc08      	pop	{r3}
   22632:	2000      	movs	r0, #0
   22634:	43c0      	mvns	r0, r0
   22636:	4718      	bx	r3
   22638:	0003af2c 	.word	0x0003af2c
   2263c:	0003af34 	.word	0x0003af34

00022640 <DalpdAxiCfg_AhbBuffOp>:
   22640:	b5f8      	push	{r3, r4, r5, r6, r7, lr}
   22642:	788e      	ldrb	r6, [r1, #2]
   22644:	780a      	ldrb	r2, [r1, #0]
   22646:	0004      	movs	r4, r0
   22648:	000d      	movs	r5, r1
   2264a:	2700      	movs	r7, #0
   2264c:	6840      	ldr	r0, [r0, #4]
   2264e:	43ff      	mvns	r7, r7
   22650:	0031      	movs	r1, r6
   22652:	f000 f8d2 	bl	227fa <DalpdAxiCfg_IsValidTargetMasterPort>
   22656:	2800      	cmp	r0, #0
   22658:	d024      	beq.n	226a4 <DalpdAxiCfg_AhbBuffOp+0x64>
   2265a:	78e8      	ldrb	r0, [r5, #3]
   2265c:	1f00      	subs	r0, r0, #4
   2265e:	2806      	cmp	r0, #6
   22660:	d220      	bcs.n	226a4 <DalpdAxiCfg_AhbBuffOp+0x64>
   22662:	0001      	movs	r1, r0
   22664:	4479      	add	r1, pc
   22666:	7909      	ldrb	r1, [r1, #4]
   22668:	1849      	adds	r1, r1, r1
   2266a:	448f      	add	pc, r1
   2266c:	110f0702 	.word	0x110f0702
   22670:	1513      	.short	0x1513
   22672:	6860      	ldr	r0, [r4, #4]
   22674:	0031      	movs	r1, r6
   22676:	f002 f9b9 	bl	249ec <HAL_axifab_EnableBufferableAHBWrite>
   2267a:	e003      	b.n	22684 <DalpdAxiCfg_AhbBuffOp+0x44>
   2267c:	6860      	ldr	r0, [r4, #4]
   2267e:	0031      	movs	r1, r6
   22680:	f002 f966 	bl	24950 <HAL_axifab_DisableBufferableAHBWrite>
   22684:	bcf8      	pop	{r3, r4, r5, r6, r7}
   22686:	bc08      	pop	{r3}
   22688:	2000      	movs	r0, #0
   2268a:	4718      	bx	r3
   2268c:	2200      	movs	r2, #0
   2268e:	e004      	b.n	2269a <DalpdAxiCfg_AhbBuffOp+0x5a>
   22690:	2201      	movs	r2, #1
   22692:	e002      	b.n	2269a <DalpdAxiCfg_AhbBuffOp+0x5a>
   22694:	2202      	movs	r2, #2
   22696:	e000      	b.n	2269a <DalpdAxiCfg_AhbBuffOp+0x5a>
   22698:	2203      	movs	r2, #3
   2269a:	6860      	ldr	r0, [r4, #4]
   2269c:	0031      	movs	r1, r6
   2269e:	f002 fb03 	bl	24ca8 <HAL_axifab_SetAHBWrPackMode>
   226a2:	2700      	movs	r7, #0
   226a4:	0038      	movs	r0, r7
   226a6:	bcf8      	pop	{r3, r4, r5, r6, r7}
   226a8:	bc08      	pop	{r3}
   226aa:	4718      	bx	r3

000226ac <DalpdAxiCfg_AxiWrGathOp>:
   226ac:	b5f8      	push	{r3, r4, r5, r6, r7, lr}
   226ae:	788d      	ldrb	r5, [r1, #2]
   226b0:	780a      	ldrb	r2, [r1, #0]
   226b2:	0004      	movs	r4, r0
   226b4:	000f      	movs	r7, r1
   226b6:	2600      	movs	r6, #0
   226b8:	6840      	ldr	r0, [r0, #4]
   226ba:	43f6      	mvns	r6, r6
   226bc:	0029      	movs	r1, r5
   226be:	f000 f89c 	bl	227fa <DalpdAxiCfg_IsValidTargetMasterPort>
   226c2:	2800      	cmp	r0, #0
   226c4:	d015      	beq.n	226f2 <DalpdAxiCfg_AxiWrGathOp+0x46>
   226c6:	78fa      	ldrb	r2, [r7, #3]
   226c8:	2a00      	cmp	r2, #0
   226ca:	d006      	beq.n	226da <DalpdAxiCfg_AxiWrGathOp+0x2e>
   226cc:	2a01      	cmp	r2, #1
   226ce:	d006      	beq.n	226de <DalpdAxiCfg_AxiWrGathOp+0x32>
   226d0:	2a02      	cmp	r2, #2
   226d2:	d006      	beq.n	226e2 <DalpdAxiCfg_AxiWrGathOp+0x36>
   226d4:	2a03      	cmp	r2, #3
   226d6:	d10c      	bne.n	226f2 <DalpdAxiCfg_AxiWrGathOp+0x46>
   226d8:	e005      	b.n	226e6 <DalpdAxiCfg_AxiWrGathOp+0x3a>
   226da:	2202      	movs	r2, #2
   226dc:	e004      	b.n	226e8 <DalpdAxiCfg_AxiWrGathOp+0x3c>
   226de:	2203      	movs	r2, #3
   226e0:	e002      	b.n	226e8 <DalpdAxiCfg_AxiWrGathOp+0x3c>
   226e2:	2200      	movs	r2, #0
   226e4:	e000      	b.n	226e8 <DalpdAxiCfg_AxiWrGathOp+0x3c>
   226e6:	2201      	movs	r2, #1
   226e8:	6860      	ldr	r0, [r4, #4]
   226ea:	0029      	movs	r1, r5
   226ec:	f002 faf8 	bl	24ce0 <HAL_axifab_SetAXIWrGatherMode>
   226f0:	2600      	movs	r6, #0
   226f2:	0030      	movs	r0, r6
   226f4:	bcf8      	pop	{r3, r4, r5, r6, r7}
   226f6:	bc08      	pop	{r3}
   226f8:	4718      	bx	r3

000226fa <DalpdAxiCfg_ClockModOp>:
   226fa:	b5f8      	push	{r3, r4, r5, r6, r7, lr}
   226fc:	788f      	ldrb	r7, [r1, #2]
   226fe:	780a      	ldrb	r2, [r1, #0]
   22700:	0004      	movs	r4, r0
   22702:	000d      	movs	r5, r1
   22704:	2600      	movs	r6, #0
   22706:	6840      	ldr	r0, [r0, #4]
   22708:	43f6      	mvns	r6, r6
   2270a:	0039      	movs	r1, r7
   2270c:	f000 f875 	bl	227fa <DalpdAxiCfg_IsValidTargetMasterPort>
   22710:	2800      	cmp	r0, #0
   22712:	d027      	beq.n	22764 <DalpdAxiCfg_ClockModOp+0x6a>
   22714:	78e8      	ldrb	r0, [r5, #3]
   22716:	280c      	cmp	r0, #12
   22718:	d006      	beq.n	22728 <DalpdAxiCfg_ClockModOp+0x2e>
   2271a:	280d      	cmp	r0, #13
   2271c:	d006      	beq.n	2272c <DalpdAxiCfg_ClockModOp+0x32>
   2271e:	280e      	cmp	r0, #14
   22720:	d006      	beq.n	22730 <DalpdAxiCfg_ClockModOp+0x36>
   22722:	280f      	cmp	r0, #15
   22724:	d11e      	bne.n	22764 <DalpdAxiCfg_ClockModOp+0x6a>
   22726:	e005      	b.n	22734 <DalpdAxiCfg_ClockModOp+0x3a>
   22728:	2500      	movs	r5, #0
   2272a:	e004      	b.n	22736 <DalpdAxiCfg_ClockModOp+0x3c>
   2272c:	2501      	movs	r5, #1
   2272e:	e002      	b.n	22736 <DalpdAxiCfg_ClockModOp+0x3c>
   22730:	2502      	movs	r5, #2
   22732:	e000      	b.n	22736 <DalpdAxiCfg_ClockModOp+0x3c>
   22734:	2503      	movs	r5, #3
   22736:	6860      	ldr	r0, [r4, #4]
   22738:	0039      	movs	r1, r7
   2273a:	f002 fa9b 	bl	24c74 <HAL_axifab_ReqClockChange>
   2273e:	2078      	movs	r0, #120	; 0x78
   22740:	f00d f8b3 	bl	2f8aa <busywait>
   22744:	6860      	ldr	r0, [r4, #4]
   22746:	0039      	movs	r1, r7
   22748:	f002 fa08 	bl	24b5c <HAL_axifab_IsAckReqClockChange>
   2274c:	2800      	cmp	r0, #0
   2274e:	d009      	beq.n	22764 <DalpdAxiCfg_ClockModOp+0x6a>
   22750:	6860      	ldr	r0, [r4, #4]
   22752:	002a      	movs	r2, r5
   22754:	0039      	movs	r1, r7
   22756:	f002 faf9 	bl	24d4c <HAL_axifab_SetClockMode>
   2275a:	6860      	ldr	r0, [r4, #4]
   2275c:	0039      	movs	r1, r7
   2275e:	f002 fadb 	bl	24d18 <HAL_axifab_SetClockChangeDone>
   22762:	2600      	movs	r6, #0
   22764:	0030      	movs	r0, r6
   22766:	bcf8      	pop	{r3, r4, r5, r6, r7}
   22768:	bc08      	pop	{r3}
   2276a:	4718      	bx	r3

0002276c <DalpdAxiCfg_HaltOp>:
   2276c:	b5f8      	push	{r3, r4, r5, r6, r7, lr}
   2276e:	0004      	movs	r4, r0
   22770:	7888      	ldrb	r0, [r1, #2]
   22772:	000d      	movs	r5, r1
   22774:	2700      	movs	r7, #0
   22776:	9000      	str	r0, [sp, #0]
   22778:	780a      	ldrb	r2, [r1, #0]
   2277a:	6860      	ldr	r0, [r4, #4]
   2277c:	9900      	ldr	r1, [sp, #0]
   2277e:	43ff      	mvns	r7, r7
   22780:	f000 f83b 	bl	227fa <DalpdAxiCfg_IsValidTargetMasterPort>
   22784:	2800      	cmp	r0, #0
   22786:	d032      	beq.n	227ee <DalpdAxiCfg_HaltOp+0x82>
   22788:	6860      	ldr	r0, [r4, #4]
   2278a:	9900      	ldr	r1, [sp, #0]
   2278c:	f002 fa02 	bl	24b94 <HAL_axifab_IsClockHaltEnabled>
   22790:	0006      	movs	r6, r0
   22792:	d003      	beq.n	2279c <DalpdAxiCfg_HaltOp+0x30>
   22794:	6860      	ldr	r0, [r4, #4]
   22796:	9900      	ldr	r1, [sp, #0]
   22798:	f002 f8f4 	bl	24984 <HAL_axifab_DisableClockHalt>
   2279c:	78e8      	ldrb	r0, [r5, #3]
   2279e:	2812      	cmp	r0, #18
   227a0:	d002      	beq.n	227a8 <DalpdAxiCfg_HaltOp+0x3c>
   227a2:	2813      	cmp	r0, #19
   227a4:	d018      	beq.n	227d8 <DalpdAxiCfg_HaltOp+0x6c>
   227a6:	e01c      	b.n	227e2 <DalpdAxiCfg_HaltOp+0x76>
   227a8:	6860      	ldr	r0, [r4, #4]
   227aa:	9900      	ldr	r1, [sp, #0]
   227ac:	2500      	movs	r5, #0
   227ae:	f002 f9a1 	bl	24af4 <HAL_axifab_HaltPort>
   227b2:	e002      	b.n	227ba <DalpdAxiCfg_HaltOp+0x4e>
   227b4:	2078      	movs	r0, #120	; 0x78
   227b6:	f00d f878 	bl	2f8aa <busywait>
   227ba:	6860      	ldr	r0, [r4, #4]
   227bc:	9900      	ldr	r1, [sp, #0]
   227be:	f002 fa05 	bl	24bcc <HAL_axifab_IsPortHaltAcked>
   227c2:	2800      	cmp	r0, #0
   227c4:	d106      	bne.n	227d4 <DalpdAxiCfg_HaltOp+0x68>
   227c6:	1c6d      	adds	r5, r5, #1
   227c8:	2d01      	cmp	r5, #1
   227ca:	d0f3      	beq.n	227b4 <DalpdAxiCfg_HaltOp+0x48>
   227cc:	6860      	ldr	r0, [r4, #4]
   227ce:	9900      	ldr	r1, [sp, #0]
   227d0:	f002 fad8 	bl	24d84 <HAL_axifab_UnHaltPort>
   227d4:	2700      	movs	r7, #0
   227d6:	e004      	b.n	227e2 <DalpdAxiCfg_HaltOp+0x76>
   227d8:	6860      	ldr	r0, [r4, #4]
   227da:	9900      	ldr	r1, [sp, #0]
   227dc:	f002 fad2 	bl	24d84 <HAL_axifab_UnHaltPort>
   227e0:	2700      	movs	r7, #0
   227e2:	2e00      	cmp	r6, #0
   227e4:	d003      	beq.n	227ee <DalpdAxiCfg_HaltOp+0x82>
   227e6:	6860      	ldr	r0, [r4, #4]
   227e8:	9900      	ldr	r1, [sp, #0]
   227ea:	f002 f919 	bl	24a20 <HAL_axifab_EnableClockHalt>
   227ee:	0038      	movs	r0, r7
   227f0:	bcf8      	pop	{r3, r4, r5, r6, r7}
   227f2:	bc08      	pop	{r3}
   227f4:	4718      	bx	r3

000227f6 <DalpdAxiCfg_HaltQueryOp>:
   227f6:	2000      	movs	r0, #0
   227f8:	4770      	bx	lr

000227fa <DalpdAxiCfg_IsValidTargetMasterPort>:
   227fa:	0003      	movs	r3, r0
   227fc:	2000      	movs	r0, #0
   227fe:	2a01      	cmp	r2, #1
   22800:	d108      	bne.n	22814 <DalpdAxiCfg_IsValidTargetMasterPort+0x1a>
   22802:	2b00      	cmp	r3, #0
   22804:	d007      	beq.n	22816 <DalpdAxiCfg_IsValidTargetMasterPort+0x1c>
   22806:	2b01      	cmp	r3, #1
   22808:	d008      	beq.n	2281c <DalpdAxiCfg_IsValidTargetMasterPort+0x22>
   2280a:	2b02      	cmp	r3, #2
   2280c:	d102      	bne.n	22814 <DalpdAxiCfg_IsValidTargetMasterPort+0x1a>
   2280e:	290c      	cmp	r1, #12
   22810:	d800      	bhi.n	22814 <DalpdAxiCfg_IsValidTargetMasterPort+0x1a>
   22812:	2001      	movs	r0, #1
   22814:	4770      	bx	lr
   22816:	290e      	cmp	r1, #14
   22818:	d9fb      	bls.n	22812 <DalpdAxiCfg_IsValidTargetMasterPort+0x18>
   2281a:	4770      	bx	lr
   2281c:	2905      	cmp	r1, #5
   2281e:	d9f8      	bls.n	22812 <DalpdAxiCfg_IsValidTargetMasterPort+0x18>
   22820:	4770      	bx	lr
	...

00022824 <DalpdAxiCfg_MakeClkReqs>:
   22824:	b510      	push	{r4, lr}
   22826:	6840      	ldr	r0, [r0, #4]
   22828:	2802      	cmp	r0, #2
   2282a:	d104      	bne.n	22836 <DalpdAxiCfg_MakeClkReqs+0x12>
   2282c:	4803      	ldr	r0, [pc, #12]	; (2283c <DalpdAxiCfg_MakeClkReqs+0x18>)
   2282e:	2101      	movs	r1, #1
   22830:	6800      	ldr	r0, [r0, #0]
   22832:	f011 f945 	bl	33ac0 <npa_issue_scalar_request>
   22836:	bc10      	pop	{r4}
   22838:	bc08      	pop	{r3}
   2283a:	4718      	bx	r3
   2283c:	0003c9b4 	.word	0x0003c9b4

00022840 <DalpdAxiCfg_PriorityOp>:
   22840:	b5f8      	push	{r3, r4, r5, r6, r7, lr}
   22842:	788f      	ldrb	r7, [r1, #2]
   22844:	780a      	ldrb	r2, [r1, #0]
   22846:	0004      	movs	r4, r0
   22848:	000d      	movs	r5, r1
   2284a:	2600      	movs	r6, #0
   2284c:	6840      	ldr	r0, [r0, #4]
   2284e:	43f6      	mvns	r6, r6
   22850:	0039      	movs	r1, r7
   22852:	f7ff ffd2 	bl	227fa <DalpdAxiCfg_IsValidTargetMasterPort>
   22856:	2800      	cmp	r0, #0
   22858:	d00f      	beq.n	2287a <DalpdAxiCfg_PriorityOp+0x3a>
   2285a:	78e8      	ldrb	r0, [r5, #3]
   2285c:	280a      	cmp	r0, #10
   2285e:	d002      	beq.n	22866 <DalpdAxiCfg_PriorityOp+0x26>
   22860:	280b      	cmp	r0, #11
   22862:	d10a      	bne.n	2287a <DalpdAxiCfg_PriorityOp+0x3a>
   22864:	e004      	b.n	22870 <DalpdAxiCfg_PriorityOp+0x30>
   22866:	6860      	ldr	r0, [r4, #4]
   22868:	0039      	movs	r1, r7
   2286a:	f002 f8f3 	bl	24a54 <HAL_axifab_EnablePriority>
   2286e:	e003      	b.n	22878 <DalpdAxiCfg_PriorityOp+0x38>
   22870:	6860      	ldr	r0, [r4, #4]
   22872:	0039      	movs	r1, r7
   22874:	f002 f8a0 	bl	249b8 <HAL_axifab_DisablePriority>
   22878:	2600      	movs	r6, #0
   2287a:	0030      	movs	r0, r6
   2287c:	bcf8      	pop	{r3, r4, r5, r6, r7}
   2287e:	bc08      	pop	{r3}
   22880:	4718      	bx	r3
	...

00022884 <DalpdAxiCfg_RemoveClkReqs>:
   22884:	b510      	push	{r4, lr}
   22886:	6840      	ldr	r0, [r0, #4]
   22888:	2802      	cmp	r0, #2
   2288a:	d104      	bne.n	22896 <DalpdAxiCfg_RemoveClkReqs+0x12>
   2288c:	4803      	ldr	r0, [pc, #12]	; (2289c <DalpdAxiCfg_RemoveClkReqs+0x18>)
   2288e:	2100      	movs	r1, #0
   22890:	6800      	ldr	r0, [r0, #0]
   22892:	f011 f915 	bl	33ac0 <npa_issue_scalar_request>
   22896:	bc10      	pop	{r4}
   22898:	bc08      	pop	{r3}
   2289a:	4718      	bx	r3
   2289c:	0003c9b4 	.word	0x0003c9b4

000228a0 <DalpdAxiCfg_TargetInitDevice>:
   228a0:	b508      	push	{r3, lr}
   228a2:	6800      	ldr	r0, [r0, #0]
   228a4:	490b      	ldr	r1, [pc, #44]	; (228d4 <DalpdAxiCfg_TargetInitDevice+0x34>)
   228a6:	4288      	cmp	r0, r1
   228a8:	d10b      	bne.n	228c2 <DalpdAxiCfg_TargetInitDevice+0x22>
   228aa:	2000      	movs	r0, #0
   228ac:	0003      	movs	r3, r0
   228ae:	9000      	str	r0, [sp, #0]
   228b0:	2240      	movs	r2, #64	; 0x40
   228b2:	a109      	add	r1, pc, #36	; (adr r1, 228d8 <DalpdAxiCfg_TargetInitDevice+0x38>)
   228b4:	a00e      	add	r0, pc, #56	; (adr r0, 228f0 <DalpdAxiCfg_TargetInitDevice+0x50>)
   228b6:	f010 fd5f 	bl	33378 <npa_create_sync_client_ex>
   228ba:	4911      	ldr	r1, [pc, #68]	; (22900 <DalpdAxiCfg_TargetInitDevice+0x60>)
   228bc:	2800      	cmp	r0, #0
   228be:	6008      	str	r0, [r1, #0]
   228c0:	d003      	beq.n	228ca <DalpdAxiCfg_TargetInitDevice+0x2a>
   228c2:	b001      	add	sp, #4
   228c4:	bc08      	pop	{r3}
   228c6:	2000      	movs	r0, #0
   228c8:	4718      	bx	r3
   228ca:	b001      	add	sp, #4
   228cc:	bc08      	pop	{r3}
   228ce:	2000      	movs	r0, #0
   228d0:	43c0      	mvns	r0, r0
   228d2:	4718      	bx	r3
   228d4:	02000120 	.word	0x02000120
   228d8:	2f626369 	.word	0x2f626369
   228dc:	2f676663 	.word	0x2f676663
   228e0:	726b6c63 	.word	0x726b6c63
   228e4:	6d2f7165 	.word	0x6d2f7165
   228e8:	6261666d 	.word	0x6261666d
   228ec:	00000000 	.word	0x00000000
   228f0:	6b6c632f 	.word	0x6b6c632f
   228f4:	7375622f 	.word	0x7375622f
   228f8:	666d6d2f 	.word	0x666d6d2f
   228fc:	00006261 	.word	0x00006261
   22900:	0003c9b4 	.word	0x0003c9b4

00022904 <FABRIC_REGISTERED>:
   22904:	4903      	ldr	r1, [pc, #12]	; (22914 <FABRIC_REGISTERED+0x10>)
   22906:	0080      	lsls	r0, r0, #2
   22908:	5808      	ldr	r0, [r1, r0]
   2290a:	2800      	cmp	r0, #0
   2290c:	d000      	beq.n	22910 <FABRIC_REGISTERED+0xc>
   2290e:	2001      	movs	r0, #1
   22910:	4770      	bx	lr
   22912:	0000      	.short	0x0000
   22914:	00041fc4 	.word	0x00041fc4

00022918 <HAL_SDRAM_CDC_SW_Recalibration>:
   22918:	4902      	ldr	r1, [pc, #8]	; (22924 <HAL_SDRAM_CDC_SW_Recalibration+0xc>)
   2291a:	6949      	ldr	r1, [r1, #20]
   2291c:	2900      	cmp	r1, #0
   2291e:	d000      	beq.n	22922 <HAL_SDRAM_CDC_SW_Recalibration+0xa>
   22920:	4708      	bx	r1
   22922:	4770      	bx	lr
   22924:	0003c98c 	.word	0x0003c98c

00022928 <HAL_SDRAM_Configure_Chip_Select>:
   22928:	2800      	cmp	r0, #0
   2292a:	d001      	beq.n	22930 <HAL_SDRAM_Configure_Chip_Select+0x8>
   2292c:	2003      	movs	r0, #3
   2292e:	0500      	lsls	r0, r0, #20
   22930:	2215      	movs	r2, #21
   22932:	04d2      	lsls	r2, r2, #19
   22934:	1880      	adds	r0, r0, r2
   22936:	6902      	ldr	r2, [r0, #16]
   22938:	2303      	movs	r3, #3
   2293a:	041b      	lsls	r3, r3, #16
   2293c:	0789      	lsls	r1, r1, #30
   2293e:	439a      	bics	r2, r3
   22940:	0b89      	lsrs	r1, r1, #14
   22942:	430a      	orrs	r2, r1
   22944:	6102      	str	r2, [r0, #16]
   22946:	4770      	bx	lr

00022948 <HAL_SDRAM_DDR_Wait>:
   22948:	b510      	push	{r4, lr}
   2294a:	f00c ffae 	bl	2f8aa <busywait>
   2294e:	bc10      	pop	{r4}
   22950:	bc08      	pop	{r3}
   22952:	4718      	bx	r3

00022954 <HAL_SDRAM_Disable_CDC_Calibration>:
   22954:	4902      	ldr	r1, [pc, #8]	; (22960 <HAL_SDRAM_Disable_CDC_Calibration+0xc>)
   22956:	6909      	ldr	r1, [r1, #16]
   22958:	2900      	cmp	r1, #0
   2295a:	d000      	beq.n	2295e <HAL_SDRAM_Disable_CDC_Calibration+0xa>
   2295c:	4708      	bx	r1
   2295e:	4770      	bx	lr
   22960:	0003c98c 	.word	0x0003c98c

00022964 <HAL_SDRAM_Disable_HW_IO_Cal>:
   22964:	4902      	ldr	r1, [pc, #8]	; (22970 <HAL_SDRAM_Disable_HW_IO_Cal+0xc>)
   22966:	6849      	ldr	r1, [r1, #4]
   22968:	2900      	cmp	r1, #0
   2296a:	d000      	beq.n	2296e <HAL_SDRAM_Disable_HW_IO_Cal+0xa>
   2296c:	4708      	bx	r1
   2296e:	4770      	bx	lr
   22970:	0003c98c 	.word	0x0003c98c

00022974 <HAL_SDRAM_Disable_Rapid_CDC_Calibration>:
   22974:	4902      	ldr	r1, [pc, #8]	; (22980 <HAL_SDRAM_Disable_Rapid_CDC_Calibration+0xc>)
   22976:	6a49      	ldr	r1, [r1, #36]	; 0x24
   22978:	2900      	cmp	r1, #0
   2297a:	d000      	beq.n	2297e <HAL_SDRAM_Disable_Rapid_CDC_Calibration+0xa>
   2297c:	4708      	bx	r1
   2297e:	4770      	bx	lr
   22980:	0003c98c 	.word	0x0003c98c

00022984 <HAL_SDRAM_Enable_Rapid_CDC_Calibration>:
   22984:	4902      	ldr	r1, [pc, #8]	; (22990 <HAL_SDRAM_Enable_Rapid_CDC_Calibration+0xc>)
   22986:	6a09      	ldr	r1, [r1, #32]
   22988:	2900      	cmp	r1, #0
   2298a:	d000      	beq.n	2298e <HAL_SDRAM_Enable_Rapid_CDC_Calibration+0xa>
   2298c:	4708      	bx	r1
   2298e:	4770      	bx	lr
   22990:	0003c98c 	.word	0x0003c98c

00022994 <HAL_SDRAM_Enter_Deep_Powerdown>:
   22994:	4a02      	ldr	r2, [pc, #8]	; (229a0 <HAL_SDRAM_Enter_Deep_Powerdown+0xc>)
   22996:	6b92      	ldr	r2, [r2, #56]	; 0x38
   22998:	2a00      	cmp	r2, #0
   2299a:	d000      	beq.n	2299e <HAL_SDRAM_Enter_Deep_Powerdown+0xa>
   2299c:	4710      	bx	r2
   2299e:	4770      	bx	lr
   229a0:	0003ac1c 	.word	0x0003ac1c

000229a4 <HAL_SDRAM_Enter_Self_Refresh>:
   229a4:	4b02      	ldr	r3, [pc, #8]	; (229b0 <HAL_SDRAM_Enter_Self_Refresh+0xc>)
   229a6:	6b1b      	ldr	r3, [r3, #48]	; 0x30
   229a8:	2b00      	cmp	r3, #0
   229aa:	d000      	beq.n	229ae <HAL_SDRAM_Enter_Self_Refresh+0xa>
   229ac:	4718      	bx	r3
   229ae:	4770      	bx	lr
   229b0:	0003ac1c 	.word	0x0003ac1c

000229b4 <HAL_SDRAM_Enter_Self_Refresh_All>:
   229b4:	b570      	push	{r4, r5, r6, lr}
   229b6:	4c1e      	ldr	r4, [pc, #120]	; (22a30 <HAL_SDRAM_Enter_Self_Refresh_All+0x7c>)
   229b8:	0005      	movs	r5, r0
   229ba:	6820      	ldr	r0, [r4, #0]
   229bc:	0021      	movs	r1, r4
   229be:	6849      	ldr	r1, [r1, #4]
   229c0:	2801      	cmp	r0, #1
   229c2:	d002      	beq.n	229ca <HAL_SDRAM_Enter_Self_Refresh_All+0x16>
   229c4:	2901      	cmp	r1, #1
   229c6:	d00e      	beq.n	229e6 <HAL_SDRAM_Enter_Self_Refresh_All+0x32>
   229c8:	e012      	b.n	229f0 <HAL_SDRAM_Enter_Self_Refresh_All+0x3c>
   229ca:	2901      	cmp	r1, #1
   229cc:	d005      	beq.n	229da <HAL_SDRAM_Enter_Self_Refresh_All+0x26>
   229ce:	002a      	movs	r2, r5
   229d0:	2101      	movs	r1, #1
   229d2:	2000      	movs	r0, #0
   229d4:	f7ff ffe6 	bl	229a4 <HAL_SDRAM_Enter_Self_Refresh>
   229d8:	e00a      	b.n	229f0 <HAL_SDRAM_Enter_Self_Refresh_All+0x3c>
   229da:	002a      	movs	r2, r5
   229dc:	2103      	movs	r1, #3
   229de:	2000      	movs	r0, #0
   229e0:	f7ff ffe0 	bl	229a4 <HAL_SDRAM_Enter_Self_Refresh>
   229e4:	e004      	b.n	229f0 <HAL_SDRAM_Enter_Self_Refresh_All+0x3c>
   229e6:	002a      	movs	r2, r5
   229e8:	2102      	movs	r1, #2
   229ea:	2000      	movs	r0, #0
   229ec:	f7ff ffda 	bl	229a4 <HAL_SDRAM_Enter_Self_Refresh>
   229f0:	68a0      	ldr	r0, [r4, #8]
   229f2:	2801      	cmp	r0, #1
   229f4:	68e0      	ldr	r0, [r4, #12]
   229f6:	d008      	beq.n	22a0a <HAL_SDRAM_Enter_Self_Refresh_All+0x56>
   229f8:	2801      	cmp	r0, #1
   229fa:	d103      	bne.n	22a04 <HAL_SDRAM_Enter_Self_Refresh_All+0x50>
   229fc:	002a      	movs	r2, r5
   229fe:	2102      	movs	r1, #2
   22a00:	f7ff ffd0 	bl	229a4 <HAL_SDRAM_Enter_Self_Refresh>
   22a04:	bc70      	pop	{r4, r5, r6}
   22a06:	bc08      	pop	{r3}
   22a08:	4718      	bx	r3
   22a0a:	2801      	cmp	r0, #1
   22a0c:	d007      	beq.n	22a1e <HAL_SDRAM_Enter_Self_Refresh_All+0x6a>
   22a0e:	2101      	movs	r1, #1
   22a10:	002a      	movs	r2, r5
   22a12:	0008      	movs	r0, r1
   22a14:	f7ff ffc6 	bl	229a4 <HAL_SDRAM_Enter_Self_Refresh>
   22a18:	bc70      	pop	{r4, r5, r6}
   22a1a:	bc08      	pop	{r3}
   22a1c:	4718      	bx	r3
   22a1e:	002a      	movs	r2, r5
   22a20:	2103      	movs	r1, #3
   22a22:	2001      	movs	r0, #1
   22a24:	f7ff ffbe 	bl	229a4 <HAL_SDRAM_Enter_Self_Refresh>
   22a28:	bc70      	pop	{r4, r5, r6}
   22a2a:	bc08      	pop	{r3}
   22a2c:	4718      	bx	r3
   22a2e:	0000      	.short	0x0000
   22a30:	0003e580 	.word	0x0003e580

00022a34 <HAL_SDRAM_Exit_Deep_Power_Down>:
   22a34:	4b02      	ldr	r3, [pc, #8]	; (22a40 <HAL_SDRAM_Exit_Deep_Power_Down+0xc>)
   22a36:	6bdb      	ldr	r3, [r3, #60]	; 0x3c
   22a38:	2b00      	cmp	r3, #0
   22a3a:	d000      	beq.n	22a3e <HAL_SDRAM_Exit_Deep_Power_Down+0xa>
   22a3c:	4718      	bx	r3
   22a3e:	4770      	bx	lr
   22a40:	0003ac1c 	.word	0x0003ac1c

00022a44 <HAL_SDRAM_Exit_Self_Refresh>:
   22a44:	4b02      	ldr	r3, [pc, #8]	; (22a50 <HAL_SDRAM_Exit_Self_Refresh+0xc>)
   22a46:	6b5b      	ldr	r3, [r3, #52]	; 0x34
   22a48:	2b00      	cmp	r3, #0
   22a4a:	d000      	beq.n	22a4e <HAL_SDRAM_Exit_Self_Refresh+0xa>
   22a4c:	4718      	bx	r3
   22a4e:	4770      	bx	lr
   22a50:	0003ac1c 	.word	0x0003ac1c

00022a54 <HAL_SDRAM_Exit_Self_Refresh_All>:
   22a54:	b570      	push	{r4, r5, r6, lr}
   22a56:	4c1e      	ldr	r4, [pc, #120]	; (22ad0 <HAL_SDRAM_Exit_Self_Refresh_All+0x7c>)
   22a58:	0005      	movs	r5, r0
   22a5a:	6820      	ldr	r0, [r4, #0]
   22a5c:	0021      	movs	r1, r4
   22a5e:	6849      	ldr	r1, [r1, #4]
   22a60:	2801      	cmp	r0, #1
   22a62:	d002      	beq.n	22a6a <HAL_SDRAM_Exit_Self_Refresh_All+0x16>
   22a64:	2901      	cmp	r1, #1
   22a66:	d00e      	beq.n	22a86 <HAL_SDRAM_Exit_Self_Refresh_All+0x32>
   22a68:	e012      	b.n	22a90 <HAL_SDRAM_Exit_Self_Refresh_All+0x3c>
   22a6a:	2901      	cmp	r1, #1
   22a6c:	d005      	beq.n	22a7a <HAL_SDRAM_Exit_Self_Refresh_All+0x26>
   22a6e:	002a      	movs	r2, r5
   22a70:	2101      	movs	r1, #1
   22a72:	2000      	movs	r0, #0
   22a74:	f7ff ffe6 	bl	22a44 <HAL_SDRAM_Exit_Self_Refresh>
   22a78:	e00a      	b.n	22a90 <HAL_SDRAM_Exit_Self_Refresh_All+0x3c>
   22a7a:	002a      	movs	r2, r5
   22a7c:	2103      	movs	r1, #3
   22a7e:	2000      	movs	r0, #0
   22a80:	f7ff ffe0 	bl	22a44 <HAL_SDRAM_Exit_Self_Refresh>
   22a84:	e004      	b.n	22a90 <HAL_SDRAM_Exit_Self_Refresh_All+0x3c>
   22a86:	002a      	movs	r2, r5
   22a88:	2102      	movs	r1, #2
   22a8a:	2000      	movs	r0, #0
   22a8c:	f7ff ffda 	bl	22a44 <HAL_SDRAM_Exit_Self_Refresh>
   22a90:	68a0      	ldr	r0, [r4, #8]
   22a92:	2801      	cmp	r0, #1
   22a94:	68e0      	ldr	r0, [r4, #12]
   22a96:	d008      	beq.n	22aaa <HAL_SDRAM_Exit_Self_Refresh_All+0x56>
   22a98:	2801      	cmp	r0, #1
   22a9a:	d103      	bne.n	22aa4 <HAL_SDRAM_Exit_Self_Refresh_All+0x50>
   22a9c:	002a      	movs	r2, r5
   22a9e:	2102      	movs	r1, #2
   22aa0:	f7ff ffd0 	bl	22a44 <HAL_SDRAM_Exit_Self_Refresh>
   22aa4:	bc70      	pop	{r4, r5, r6}
   22aa6:	bc08      	pop	{r3}
   22aa8:	4718      	bx	r3
   22aaa:	2801      	cmp	r0, #1
   22aac:	d007      	beq.n	22abe <HAL_SDRAM_Exit_Self_Refresh_All+0x6a>
   22aae:	2101      	movs	r1, #1
   22ab0:	002a      	movs	r2, r5
   22ab2:	0008      	movs	r0, r1
   22ab4:	f7ff ffc6 	bl	22a44 <HAL_SDRAM_Exit_Self_Refresh>
   22ab8:	bc70      	pop	{r4, r5, r6}
   22aba:	bc08      	pop	{r3}
   22abc:	4718      	bx	r3
   22abe:	002a      	movs	r2, r5
   22ac0:	2103      	movs	r1, #3
   22ac2:	2001      	movs	r0, #1
   22ac4:	f7ff ffbe 	bl	22a44 <HAL_SDRAM_Exit_Self_Refresh>
   22ac8:	bc70      	pop	{r4, r5, r6}
   22aca:	bc08      	pop	{r3}
   22acc:	4718      	bx	r3
   22ace:	0000      	.short	0x0000
   22ad0:	0003e580 	.word	0x0003e580

00022ad4 <HAL_SDRAM_Flush_Write_Buffer>:
   22ad4:	2800      	cmp	r0, #0
   22ad6:	d001      	beq.n	22adc <HAL_SDRAM_Flush_Write_Buffer+0x8>
   22ad8:	2003      	movs	r0, #3
   22ada:	0500      	lsls	r0, r0, #20
   22adc:	2129      	movs	r1, #41	; 0x29
   22ade:	0489      	lsls	r1, r1, #18
   22ae0:	1840      	adds	r0, r0, r1
   22ae2:	68c1      	ldr	r1, [r0, #12]
   22ae4:	2201      	movs	r2, #1
   22ae6:	0752      	lsls	r2, r2, #29
   22ae8:	4311      	orrs	r1, r2
   22aea:	60c1      	str	r1, [r0, #12]
   22aec:	68c1      	ldr	r1, [r0, #12]
   22aee:	0089      	lsls	r1, r1, #2
   22af0:	d4fc      	bmi.n	22aec <HAL_SDRAM_Flush_Write_Buffer+0x18>
   22af2:	4770      	bx	lr

00022af4 <HAL_SDRAM_Get_Base_Addr>:
   22af4:	b5f3      	push	{r0, r1, r4, r5, r6, r7, lr}
   22af6:	0005      	movs	r5, r0
   22af8:	2000      	movs	r0, #0
   22afa:	b081      	sub	sp, #4
   22afc:	f00f fa0c 	bl	31f18 <ddr_get_params>
   22b00:	6cc2      	ldr	r2, [r0, #76]	; 0x4c
   22b02:	6c81      	ldr	r1, [r0, #72]	; 0x48
   22b04:	2601      	movs	r6, #1
   22b06:	188a      	adds	r2, r1, r2
   22b08:	3a14      	subs	r2, #20
   22b0a:	0031      	movs	r1, r6
   22b0c:	4091      	lsls	r1, r2
   22b0e:	6d02      	ldr	r2, [r0, #80]	; 0x50
   22b10:	434a      	muls	r2, r1
   22b12:	0151      	lsls	r1, r2, #5
   22b14:	08cc      	lsrs	r4, r1, #3
   22b16:	6d82      	ldr	r2, [r0, #88]	; 0x58
   22b18:	6d41      	ldr	r1, [r0, #84]	; 0x54
   22b1a:	6dc0      	ldr	r0, [r0, #92]	; 0x5c
   22b1c:	188a      	adds	r2, r1, r2
   22b1e:	3a14      	subs	r2, #20
   22b20:	0031      	movs	r1, r6
   22b22:	4091      	lsls	r1, r2
   22b24:	4348      	muls	r0, r1
   22b26:	0140      	lsls	r0, r0, #5
   22b28:	08c7      	lsrs	r7, r0, #3
   22b2a:	2001      	movs	r0, #1
   22b2c:	f00f f9f4 	bl	31f18 <ddr_get_params>
   22b30:	6cc2      	ldr	r2, [r0, #76]	; 0x4c
   22b32:	6c81      	ldr	r1, [r0, #72]	; 0x48
   22b34:	6d00      	ldr	r0, [r0, #80]	; 0x50
   22b36:	1889      	adds	r1, r1, r2
   22b38:	3914      	subs	r1, #20
   22b3a:	408e      	lsls	r6, r1
   22b3c:	4370      	muls	r0, r6
   22b3e:	0140      	lsls	r0, r0, #5
   22b40:	08c0      	lsrs	r0, r0, #3
   22b42:	9000      	str	r0, [sp, #0]
   22b44:	9802      	ldr	r0, [sp, #8]
   22b46:	2601      	movs	r6, #1
   22b48:	07f6      	lsls	r6, r6, #31
   22b4a:	2801      	cmp	r0, #1
   22b4c:	d005      	beq.n	22b5a <HAL_SDRAM_Get_Base_Addr+0x66>
   22b4e:	f00f fadd 	bl	3210c <ddr_param_interleaved>
   22b52:	2800      	cmp	r0, #0
   22b54:	d00e      	beq.n	22b74 <HAL_SDRAM_Get_Base_Addr+0x80>
   22b56:	0560      	lsls	r0, r4, #21
   22b58:	e012      	b.n	22b80 <HAL_SDRAM_Get_Base_Addr+0x8c>
   22b5a:	2d00      	cmp	r5, #0
   22b5c:	d003      	beq.n	22b66 <HAL_SDRAM_Get_Base_Addr+0x72>
   22b5e:	f00f fad5 	bl	3210c <ddr_param_interleaved>
   22b62:	2800      	cmp	r0, #0
   22b64:	d004      	beq.n	22b70 <HAL_SDRAM_Get_Base_Addr+0x7c>
   22b66:	0030      	movs	r0, r6
   22b68:	b003      	add	sp, #12
   22b6a:	bcf0      	pop	{r4, r5, r6, r7}
   22b6c:	bc08      	pop	{r3}
   22b6e:	4718      	bx	r3
   22b70:	19e0      	adds	r0, r4, r7
   22b72:	e004      	b.n	22b7e <HAL_SDRAM_Get_Base_Addr+0x8a>
   22b74:	2d00      	cmp	r5, #0
   22b76:	d008      	beq.n	22b8a <HAL_SDRAM_Get_Base_Addr+0x96>
   22b78:	9800      	ldr	r0, [sp, #0]
   22b7a:	19e1      	adds	r1, r4, r7
   22b7c:	1808      	adds	r0, r1, r0
   22b7e:	0500      	lsls	r0, r0, #20
   22b80:	1980      	adds	r0, r0, r6
   22b82:	b003      	add	sp, #12
   22b84:	bcf0      	pop	{r4, r5, r6, r7}
   22b86:	bc08      	pop	{r3}
   22b88:	4718      	bx	r3
   22b8a:	0520      	lsls	r0, r4, #20
   22b8c:	e7f8      	b.n	22b80 <HAL_SDRAM_Get_Base_Addr+0x8c>
	...

00022b90 <HAL_SDRAM_Get_Status>:
   22b90:	4908      	ldr	r1, [pc, #32]	; (22bb4 <HAL_SDRAM_Get_Status+0x24>)
   22b92:	b430      	push	{r4, r5}
   22b94:	000a      	movs	r2, r1
   22b96:	ca3c      	ldmia	r2, {r2, r3, r4, r5}
   22b98:	c03c      	stmia	r0!, {r2, r3, r4, r5}
   22b9a:	000a      	movs	r2, r1
   22b9c:	3210      	adds	r2, #16
   22b9e:	ca3c      	ldmia	r2, {r2, r3, r4, r5}
   22ba0:	3810      	subs	r0, #16
   22ba2:	3010      	adds	r0, #16
   22ba4:	c03c      	stmia	r0!, {r2, r3, r4, r5}
   22ba6:	3120      	adds	r1, #32
   22ba8:	c906      	ldmia	r1, {r1, r2}
   22baa:	3820      	subs	r0, #32
   22bac:	3020      	adds	r0, #32
   22bae:	c006      	stmia	r0!, {r1, r2}
   22bb0:	bc30      	pop	{r4, r5}
   22bb2:	4770      	bx	lr
   22bb4:	0003e580 	.word	0x0003e580

00022bb8 <HAL_SDRAM_HW_Init>:
   22bb8:	4b02      	ldr	r3, [pc, #8]	; (22bc4 <HAL_SDRAM_HW_Init+0xc>)
   22bba:	689b      	ldr	r3, [r3, #8]
   22bbc:	2b00      	cmp	r3, #0
   22bbe:	d000      	beq.n	22bc2 <HAL_SDRAM_HW_Init+0xa>
   22bc0:	4718      	bx	r3
   22bc2:	4770      	bx	lr
   22bc4:	0003ac1c 	.word	0x0003ac1c

00022bc8 <HAL_SDRAM_Is_Interleaved>:
   22bc8:	2800      	cmp	r0, #0
   22bca:	d001      	beq.n	22bd0 <HAL_SDRAM_Is_Interleaved+0x8>
   22bcc:	2003      	movs	r0, #3
   22bce:	0500      	lsls	r0, r0, #20
   22bd0:	2129      	movs	r1, #41	; 0x29
   22bd2:	0489      	lsls	r1, r1, #18
   22bd4:	1840      	adds	r0, r0, r1
   22bd6:	6800      	ldr	r0, [r0, #0]
   22bd8:	0480      	lsls	r0, r0, #18
   22bda:	0f80      	lsrs	r0, r0, #30
   22bdc:	d000      	beq.n	22be0 <HAL_SDRAM_Is_Interleaved+0x18>
   22bde:	2001      	movs	r0, #1
   22be0:	4770      	bx	lr
	...

00022be4 <HAL_SDRAM_LPDDR2_CDC_SW_Recalibration>:
   22be4:	b5f8      	push	{r3, r4, r5, r6, r7, lr}
   22be6:	2800      	cmp	r0, #0
   22be8:	d020      	beq.n	22c2c <HAL_SDRAM_LPDDR2_CDC_SW_Recalibration+0x48>
   22bea:	2405      	movs	r4, #5
   22bec:	0524      	lsls	r4, r4, #20
   22bee:	f000 f90f 	bl	22e10 <HAL_SDRAM_LPDDR2_Disable_CDC_Calibration>
   22bf2:	4f6d      	ldr	r7, [pc, #436]	; (22da8 <HAL_SDRAM_LPDDR2_CDC_SW_Recalibration+0x1c4>)
   22bf4:	496d      	ldr	r1, [pc, #436]	; (22dac <HAL_SDRAM_LPDDR2_CDC_SW_Recalibration+0x1c8>)
   22bf6:	69fa      	ldr	r2, [r7, #28]
   22bf8:	4d6d      	ldr	r5, [pc, #436]	; (22db0 <HAL_SDRAM_LPDDR2_CDC_SW_Recalibration+0x1cc>)
   22bfa:	4e6e      	ldr	r6, [pc, #440]	; (22db4 <HAL_SDRAM_LPDDR2_CDC_SW_Recalibration+0x1d0>)
   22bfc:	428a      	cmp	r2, r1
   22bfe:	d217      	bcs.n	22c30 <HAL_SDRAM_LPDDR2_CDC_SW_Recalibration+0x4c>
   22c00:	4a6d      	ldr	r2, [pc, #436]	; (22db8 <HAL_SDRAM_LPDDR2_CDC_SW_Recalibration+0x1d4>)
   22c02:	486e      	ldr	r0, [pc, #440]	; (22dbc <HAL_SDRAM_LPDDR2_CDC_SW_Recalibration+0x1d8>)
   22c04:	68eb      	ldr	r3, [r5, #12]
   22c06:	0021      	movs	r1, r4
   22c08:	f001 f84b 	bl	23ca2 <HAL_SDRAM_Manual_Broadcast>
   22c0c:	4a6a      	ldr	r2, [pc, #424]	; (22db8 <HAL_SDRAM_LPDDR2_CDC_SW_Recalibration+0x1d4>)
   22c0e:	486c      	ldr	r0, [pc, #432]	; (22dc0 <HAL_SDRAM_LPDDR2_CDC_SW_Recalibration+0x1dc>)
   22c10:	68eb      	ldr	r3, [r5, #12]
   22c12:	0021      	movs	r1, r4
   22c14:	f001 f845 	bl	23ca2 <HAL_SDRAM_Manual_Broadcast>
   22c18:	19a0      	adds	r0, r4, r6
   22c1a:	6901      	ldr	r1, [r0, #16]
   22c1c:	4a69      	ldr	r2, [pc, #420]	; (22dc4 <HAL_SDRAM_LPDDR2_CDC_SW_Recalibration+0x1e0>)
   22c1e:	4011      	ands	r1, r2
   22c20:	68ea      	ldr	r2, [r5, #12]
   22c22:	0512      	lsls	r2, r2, #20
   22c24:	0d12      	lsrs	r2, r2, #20
   22c26:	4311      	orrs	r1, r2
   22c28:	6101      	str	r1, [r0, #16]
   22c2a:	e031      	b.n	22c90 <HAL_SDRAM_LPDDR2_CDC_SW_Recalibration+0xac>
   22c2c:	2400      	movs	r4, #0
   22c2e:	e7de      	b.n	22bee <HAL_SDRAM_LPDDR2_CDC_SW_Recalibration+0xa>
   22c30:	4965      	ldr	r1, [pc, #404]	; (22dc8 <HAL_SDRAM_LPDDR2_CDC_SW_Recalibration+0x1e4>)
   22c32:	6a3a      	ldr	r2, [r7, #32]
   22c34:	6809      	ldr	r1, [r1, #0]
   22c36:	428a      	cmp	r2, r1
   22c38:	d315      	bcc.n	22c66 <HAL_SDRAM_LPDDR2_CDC_SW_Recalibration+0x82>
   22c3a:	4a5f      	ldr	r2, [pc, #380]	; (22db8 <HAL_SDRAM_LPDDR2_CDC_SW_Recalibration+0x1d4>)
   22c3c:	485f      	ldr	r0, [pc, #380]	; (22dbc <HAL_SDRAM_LPDDR2_CDC_SW_Recalibration+0x1d8>)
   22c3e:	682b      	ldr	r3, [r5, #0]
   22c40:	0021      	movs	r1, r4
   22c42:	f001 f82e 	bl	23ca2 <HAL_SDRAM_Manual_Broadcast>
   22c46:	4a5c      	ldr	r2, [pc, #368]	; (22db8 <HAL_SDRAM_LPDDR2_CDC_SW_Recalibration+0x1d4>)
   22c48:	485d      	ldr	r0, [pc, #372]	; (22dc0 <HAL_SDRAM_LPDDR2_CDC_SW_Recalibration+0x1dc>)
   22c4a:	682b      	ldr	r3, [r5, #0]
   22c4c:	0021      	movs	r1, r4
   22c4e:	f001 f828 	bl	23ca2 <HAL_SDRAM_Manual_Broadcast>
   22c52:	19a0      	adds	r0, r4, r6
   22c54:	6901      	ldr	r1, [r0, #16]
   22c56:	4a5b      	ldr	r2, [pc, #364]	; (22dc4 <HAL_SDRAM_LPDDR2_CDC_SW_Recalibration+0x1e0>)
   22c58:	4011      	ands	r1, r2
   22c5a:	682a      	ldr	r2, [r5, #0]
   22c5c:	0512      	lsls	r2, r2, #20
   22c5e:	0d12      	lsrs	r2, r2, #20
   22c60:	4311      	orrs	r1, r2
   22c62:	6101      	str	r1, [r0, #16]
   22c64:	e014      	b.n	22c90 <HAL_SDRAM_LPDDR2_CDC_SW_Recalibration+0xac>
   22c66:	4a54      	ldr	r2, [pc, #336]	; (22db8 <HAL_SDRAM_LPDDR2_CDC_SW_Recalibration+0x1d4>)
   22c68:	4854      	ldr	r0, [pc, #336]	; (22dbc <HAL_SDRAM_LPDDR2_CDC_SW_Recalibration+0x1d8>)
   22c6a:	686b      	ldr	r3, [r5, #4]
   22c6c:	0021      	movs	r1, r4
   22c6e:	f001 f818 	bl	23ca2 <HAL_SDRAM_Manual_Broadcast>
   22c72:	4a51      	ldr	r2, [pc, #324]	; (22db8 <HAL_SDRAM_LPDDR2_CDC_SW_Recalibration+0x1d4>)
   22c74:	4852      	ldr	r0, [pc, #328]	; (22dc0 <HAL_SDRAM_LPDDR2_CDC_SW_Recalibration+0x1dc>)
   22c76:	686b      	ldr	r3, [r5, #4]
   22c78:	0021      	movs	r1, r4
   22c7a:	f001 f812 	bl	23ca2 <HAL_SDRAM_Manual_Broadcast>
   22c7e:	19a0      	adds	r0, r4, r6
   22c80:	6901      	ldr	r1, [r0, #16]
   22c82:	4a50      	ldr	r2, [pc, #320]	; (22dc4 <HAL_SDRAM_LPDDR2_CDC_SW_Recalibration+0x1e0>)
   22c84:	4011      	ands	r1, r2
   22c86:	686a      	ldr	r2, [r5, #4]
   22c88:	0512      	lsls	r2, r2, #20
   22c8a:	0d12      	lsrs	r2, r2, #20
   22c8c:	4311      	orrs	r1, r2
   22c8e:	6101      	str	r1, [r0, #16]
   22c90:	4846      	ldr	r0, [pc, #280]	; (22dac <HAL_SDRAM_LPDDR2_CDC_SW_Recalibration+0x1c8>)
   22c92:	69f9      	ldr	r1, [r7, #28]
   22c94:	4a4d      	ldr	r2, [pc, #308]	; (22dcc <HAL_SDRAM_LPDDR2_CDC_SW_Recalibration+0x1e8>)
   22c96:	4281      	cmp	r1, r0
   22c98:	d205      	bcs.n	22ca6 <HAL_SDRAM_LPDDR2_CDC_SW_Recalibration+0xc2>
   22c9a:	484d      	ldr	r0, [pc, #308]	; (22dd0 <HAL_SDRAM_LPDDR2_CDC_SW_Recalibration+0x1ec>)
   22c9c:	69eb      	ldr	r3, [r5, #28]
   22c9e:	0021      	movs	r1, r4
   22ca0:	f000 ffff 	bl	23ca2 <HAL_SDRAM_Manual_Broadcast>
   22ca4:	e018      	b.n	22cd8 <HAL_SDRAM_LPDDR2_CDC_SW_Recalibration+0xf4>
   22ca6:	4b48      	ldr	r3, [pc, #288]	; (22dc8 <HAL_SDRAM_LPDDR2_CDC_SW_Recalibration+0x1e4>)
   22ca8:	6a78      	ldr	r0, [r7, #36]	; 0x24
   22caa:	68d9      	ldr	r1, [r3, #12]
   22cac:	4288      	cmp	r0, r1
   22cae:	d305      	bcc.n	22cbc <HAL_SDRAM_LPDDR2_CDC_SW_Recalibration+0xd8>
   22cb0:	4847      	ldr	r0, [pc, #284]	; (22dd0 <HAL_SDRAM_LPDDR2_CDC_SW_Recalibration+0x1ec>)
   22cb2:	692b      	ldr	r3, [r5, #16]
   22cb4:	0021      	movs	r1, r4
   22cb6:	f000 fff4 	bl	23ca2 <HAL_SDRAM_Manual_Broadcast>
   22cba:	e00d      	b.n	22cd8 <HAL_SDRAM_LPDDR2_CDC_SW_Recalibration+0xf4>
   22cbc:	6919      	ldr	r1, [r3, #16]
   22cbe:	4288      	cmp	r0, r1
   22cc0:	d305      	bcc.n	22cce <HAL_SDRAM_LPDDR2_CDC_SW_Recalibration+0xea>
   22cc2:	4843      	ldr	r0, [pc, #268]	; (22dd0 <HAL_SDRAM_LPDDR2_CDC_SW_Recalibration+0x1ec>)
   22cc4:	696b      	ldr	r3, [r5, #20]
   22cc6:	0021      	movs	r1, r4
   22cc8:	f000 ffeb 	bl	23ca2 <HAL_SDRAM_Manual_Broadcast>
   22ccc:	e004      	b.n	22cd8 <HAL_SDRAM_LPDDR2_CDC_SW_Recalibration+0xf4>
   22cce:	4840      	ldr	r0, [pc, #256]	; (22dd0 <HAL_SDRAM_LPDDR2_CDC_SW_Recalibration+0x1ec>)
   22cd0:	69ab      	ldr	r3, [r5, #24]
   22cd2:	0021      	movs	r1, r4
   22cd4:	f000 ffe5 	bl	23ca2 <HAL_SDRAM_Manual_Broadcast>
   22cd8:	2301      	movs	r3, #1
   22cda:	041b      	lsls	r3, r3, #16
   22cdc:	483d      	ldr	r0, [pc, #244]	; (22dd4 <HAL_SDRAM_LPDDR2_CDC_SW_Recalibration+0x1f0>)
   22cde:	001a      	movs	r2, r3
   22ce0:	0021      	movs	r1, r4
   22ce2:	f000 ffde 	bl	23ca2 <HAL_SDRAM_Manual_Broadcast>
   22ce6:	483c      	ldr	r0, [pc, #240]	; (22dd8 <HAL_SDRAM_LPDDR2_CDC_SW_Recalibration+0x1f4>)
   22ce8:	1825      	adds	r5, r4, r0
   22cea:	6b29      	ldr	r1, [r5, #48]	; 0x30
   22cec:	483b      	ldr	r0, [pc, #236]	; (22ddc <HAL_SDRAM_LPDDR2_CDC_SW_Recalibration+0x1f8>)
   22cee:	4001      	ands	r1, r0
   22cf0:	2001      	movs	r0, #1
   22cf2:	0400      	lsls	r0, r0, #16
   22cf4:	4301      	orrs	r1, r0
   22cf6:	6329      	str	r1, [r5, #48]	; 0x30
   22cf8:	0002      	movs	r2, r0
   22cfa:	4836      	ldr	r0, [pc, #216]	; (22dd4 <HAL_SDRAM_LPDDR2_CDC_SW_Recalibration+0x1f0>)
   22cfc:	2300      	movs	r3, #0
   22cfe:	0021      	movs	r1, r4
   22d00:	f000 ffcf 	bl	23ca2 <HAL_SDRAM_Manual_Broadcast>
   22d04:	6b28      	ldr	r0, [r5, #48]	; 0x30
   22d06:	4936      	ldr	r1, [pc, #216]	; (22de0 <HAL_SDRAM_LPDDR2_CDC_SW_Recalibration+0x1fc>)
   22d08:	4008      	ands	r0, r1
   22d0a:	6328      	str	r0, [r5, #48]	; 0x30
   22d0c:	4835      	ldr	r0, [pc, #212]	; (22de4 <HAL_SDRAM_LPDDR2_CDC_SW_Recalibration+0x200>)
   22d0e:	1820      	adds	r0, r4, r0
   22d10:	6b01      	ldr	r1, [r0, #48]	; 0x30
   22d12:	07c9      	lsls	r1, r1, #31
   22d14:	d0fc      	beq.n	22d10 <HAL_SDRAM_LPDDR2_CDC_SW_Recalibration+0x12c>
   22d16:	4834      	ldr	r0, [pc, #208]	; (22de8 <HAL_SDRAM_LPDDR2_CDC_SW_Recalibration+0x204>)
   22d18:	1820      	adds	r0, r4, r0
   22d1a:	6b01      	ldr	r1, [r0, #48]	; 0x30
   22d1c:	07c9      	lsls	r1, r1, #31
   22d1e:	d0fc      	beq.n	22d1a <HAL_SDRAM_LPDDR2_CDC_SW_Recalibration+0x136>
   22d20:	4832      	ldr	r0, [pc, #200]	; (22dec <HAL_SDRAM_LPDDR2_CDC_SW_Recalibration+0x208>)
   22d22:	1820      	adds	r0, r4, r0
   22d24:	6b01      	ldr	r1, [r0, #48]	; 0x30
   22d26:	07c9      	lsls	r1, r1, #31
   22d28:	d0fc      	beq.n	22d24 <HAL_SDRAM_LPDDR2_CDC_SW_Recalibration+0x140>
   22d2a:	4831      	ldr	r0, [pc, #196]	; (22df0 <HAL_SDRAM_LPDDR2_CDC_SW_Recalibration+0x20c>)
   22d2c:	1820      	adds	r0, r4, r0
   22d2e:	6b01      	ldr	r1, [r0, #48]	; 0x30
   22d30:	07c9      	lsls	r1, r1, #31
   22d32:	d0fc      	beq.n	22d2e <HAL_SDRAM_LPDDR2_CDC_SW_Recalibration+0x14a>
   22d34:	482f      	ldr	r0, [pc, #188]	; (22df4 <HAL_SDRAM_LPDDR2_CDC_SW_Recalibration+0x210>)
   22d36:	1820      	adds	r0, r4, r0
   22d38:	6901      	ldr	r1, [r0, #16]
   22d3a:	07c9      	lsls	r1, r1, #31
   22d3c:	d0fc      	beq.n	22d38 <HAL_SDRAM_LPDDR2_CDC_SW_Recalibration+0x154>
   22d3e:	482e      	ldr	r0, [pc, #184]	; (22df8 <HAL_SDRAM_LPDDR2_CDC_SW_Recalibration+0x214>)
   22d40:	1820      	adds	r0, r4, r0
   22d42:	6901      	ldr	r1, [r0, #16]
   22d44:	07c9      	lsls	r1, r1, #31
   22d46:	d0fc      	beq.n	22d42 <HAL_SDRAM_LPDDR2_CDC_SW_Recalibration+0x15e>
   22d48:	482c      	ldr	r0, [pc, #176]	; (22dfc <HAL_SDRAM_LPDDR2_CDC_SW_Recalibration+0x218>)
   22d4a:	1820      	adds	r0, r4, r0
   22d4c:	6901      	ldr	r1, [r0, #16]
   22d4e:	07c9      	lsls	r1, r1, #31
   22d50:	d0fc      	beq.n	22d4c <HAL_SDRAM_LPDDR2_CDC_SW_Recalibration+0x168>
   22d52:	482b      	ldr	r0, [pc, #172]	; (22e00 <HAL_SDRAM_LPDDR2_CDC_SW_Recalibration+0x21c>)
   22d54:	1820      	adds	r0, r4, r0
   22d56:	6901      	ldr	r1, [r0, #16]
   22d58:	07c9      	lsls	r1, r1, #31
   22d5a:	d0fc      	beq.n	22d56 <HAL_SDRAM_LPDDR2_CDC_SW_Recalibration+0x172>
   22d5c:	19a0      	adds	r0, r4, r6
   22d5e:	6b01      	ldr	r1, [r0, #48]	; 0x30
   22d60:	07c9      	lsls	r1, r1, #31
   22d62:	d0fc      	beq.n	22d5e <HAL_SDRAM_LPDDR2_CDC_SW_Recalibration+0x17a>
   22d64:	4811      	ldr	r0, [pc, #68]	; (22dac <HAL_SDRAM_LPDDR2_CDC_SW_Recalibration+0x1c8>)
   22d66:	69f9      	ldr	r1, [r7, #28]
   22d68:	4281      	cmp	r1, r0
   22d6a:	d31a      	bcc.n	22da2 <HAL_SDRAM_LPDDR2_CDC_SW_Recalibration+0x1be>
   22d6c:	2601      	movs	r6, #1
   22d6e:	0476      	lsls	r6, r6, #17
   22d70:	0033      	movs	r3, r6
   22d72:	4818      	ldr	r0, [pc, #96]	; (22dd4 <HAL_SDRAM_LPDDR2_CDC_SW_Recalibration+0x1f0>)
   22d74:	001a      	movs	r2, r3
   22d76:	0021      	movs	r1, r4
   22d78:	f000 ff93 	bl	23ca2 <HAL_SDRAM_Manual_Broadcast>
   22d7c:	6b28      	ldr	r0, [r5, #48]	; 0x30
   22d7e:	4917      	ldr	r1, [pc, #92]	; (22ddc <HAL_SDRAM_LPDDR2_CDC_SW_Recalibration+0x1f8>)
   22d80:	4008      	ands	r0, r1
   22d82:	4330      	orrs	r0, r6
   22d84:	6328      	str	r0, [r5, #48]	; 0x30
   22d86:	481f      	ldr	r0, [pc, #124]	; (22e04 <HAL_SDRAM_LPDDR2_CDC_SW_Recalibration+0x220>)
   22d88:	1820      	adds	r0, r4, r0
   22d8a:	6b81      	ldr	r1, [r0, #56]	; 0x38
   22d8c:	4a1e      	ldr	r2, [pc, #120]	; (22e08 <HAL_SDRAM_LPDDR2_CDC_SW_Recalibration+0x224>)
   22d8e:	4b1f      	ldr	r3, [pc, #124]	; (22e0c <HAL_SDRAM_LPDDR2_CDC_SW_Recalibration+0x228>)
   22d90:	4011      	ands	r1, r2
   22d92:	1070      	asrs	r0, r6, #1
   22d94:	4301      	orrs	r1, r0
   22d96:	18e3      	adds	r3, r4, r3
   22d98:	6399      	str	r1, [r3, #56]	; 0x38
   22d9a:	6ba9      	ldr	r1, [r5, #56]	; 0x38
   22d9c:	4011      	ands	r1, r2
   22d9e:	4301      	orrs	r1, r0
   22da0:	63a9      	str	r1, [r5, #56]	; 0x38
   22da2:	bcf8      	pop	{r3, r4, r5, r6, r7}
   22da4:	bc08      	pop	{r3}
   22da6:	4718      	bx	r3
   22da8:	0003e580 	.word	0x0003e580
   22dac:	0001046b 	.word	0x0001046b
   22db0:	0003abd8 	.word	0x0003abd8
   22db4:	1ab00040 	.word	0x1ab00040
   22db8:	00000fff 	.word	0x00000fff
   22dbc:	1a7000b0 	.word	0x1a7000b0
   22dc0:	1a700050 	.word	0x1a700050
   22dc4:	1fff0000 	.word	0x1fff0000
   22dc8:	0003ac04 	.word	0x0003ac04
   22dcc:	000007ff 	.word	0x000007ff
   22dd0:	1a700060 	.word	0x1a700060
   22dd4:	1a700030 	.word	0x1a700030
   22dd8:	1ab00000 	.word	0x1ab00000
   22ddc:	01ff37ff 	.word	0x01ff37ff
   22de0:	01fe37ff 	.word	0x01fe37ff
   22de4:	1a700040 	.word	0x1a700040
   22de8:	1a800040 	.word	0x1a800040
   22dec:	1a900040 	.word	0x1a900040
   22df0:	1aa00040 	.word	0x1aa00040
   22df4:	1a7000c0 	.word	0x1a7000c0
   22df8:	1a8000c0 	.word	0x1a8000c0
   22dfc:	1a9000c0 	.word	0x1a9000c0
   22e00:	1aa000c0 	.word	0x1aa000c0
   22e04:	1a700000 	.word	0x1a700000
   22e08:	01f1ffff 	.word	0x01f1ffff
   22e0c:	1a780000 	.word	0x1a780000

00022e10 <HAL_SDRAM_LPDDR2_Disable_CDC_Calibration>:
   22e10:	b570      	push	{r4, r5, r6, lr}
   22e12:	2800      	cmp	r0, #0
   22e14:	d049      	beq.n	22eaa <HAL_SDRAM_LPDDR2_Disable_CDC_Calibration+0x9a>
   22e16:	2405      	movs	r4, #5
   22e18:	0524      	lsls	r4, r4, #20
   22e1a:	4825      	ldr	r0, [pc, #148]	; (22eb0 <HAL_SDRAM_LPDDR2_Disable_CDC_Calibration+0xa0>)
   22e1c:	1820      	adds	r0, r4, r0
   22e1e:	6b80      	ldr	r0, [r0, #56]	; 0x38
   22e20:	4924      	ldr	r1, [pc, #144]	; (22eb4 <HAL_SDRAM_LPDDR2_Disable_CDC_Calibration+0xa4>)
   22e22:	4a25      	ldr	r2, [pc, #148]	; (22eb8 <HAL_SDRAM_LPDDR2_Disable_CDC_Calibration+0xa8>)
   22e24:	4008      	ands	r0, r1
   22e26:	18a2      	adds	r2, r4, r2
   22e28:	6390      	str	r0, [r2, #56]	; 0x38
   22e2a:	4824      	ldr	r0, [pc, #144]	; (22ebc <HAL_SDRAM_LPDDR2_Disable_CDC_Calibration+0xac>)
   22e2c:	1825      	adds	r5, r4, r0
   22e2e:	6ba8      	ldr	r0, [r5, #56]	; 0x38
   22e30:	4008      	ands	r0, r1
   22e32:	63a8      	str	r0, [r5, #56]	; 0x38
   22e34:	2201      	movs	r2, #1
   22e36:	4822      	ldr	r0, [pc, #136]	; (22ec0 <HAL_SDRAM_LPDDR2_Disable_CDC_Calibration+0xb0>)
   22e38:	2300      	movs	r3, #0
   22e3a:	0452      	lsls	r2, r2, #17
   22e3c:	0021      	movs	r1, r4
   22e3e:	f000 ff30 	bl	23ca2 <HAL_SDRAM_Manual_Broadcast>
   22e42:	6b28      	ldr	r0, [r5, #48]	; 0x30
   22e44:	491f      	ldr	r1, [pc, #124]	; (22ec4 <HAL_SDRAM_LPDDR2_Disable_CDC_Calibration+0xb4>)
   22e46:	4008      	ands	r0, r1
   22e48:	6328      	str	r0, [r5, #48]	; 0x30
   22e4a:	481f      	ldr	r0, [pc, #124]	; (22ec8 <HAL_SDRAM_LPDDR2_Disable_CDC_Calibration+0xb8>)
   22e4c:	1820      	adds	r0, r4, r0
   22e4e:	6b01      	ldr	r1, [r0, #48]	; 0x30
   22e50:	0749      	lsls	r1, r1, #29
   22e52:	d5fc      	bpl.n	22e4e <HAL_SDRAM_LPDDR2_Disable_CDC_Calibration+0x3e>
   22e54:	481d      	ldr	r0, [pc, #116]	; (22ecc <HAL_SDRAM_LPDDR2_Disable_CDC_Calibration+0xbc>)
   22e56:	1820      	adds	r0, r4, r0
   22e58:	6b01      	ldr	r1, [r0, #48]	; 0x30
   22e5a:	0749      	lsls	r1, r1, #29
   22e5c:	d5fc      	bpl.n	22e58 <HAL_SDRAM_LPDDR2_Disable_CDC_Calibration+0x48>
   22e5e:	481c      	ldr	r0, [pc, #112]	; (22ed0 <HAL_SDRAM_LPDDR2_Disable_CDC_Calibration+0xc0>)
   22e60:	1820      	adds	r0, r4, r0
   22e62:	6b01      	ldr	r1, [r0, #48]	; 0x30
   22e64:	0749      	lsls	r1, r1, #29
   22e66:	d5fc      	bpl.n	22e62 <HAL_SDRAM_LPDDR2_Disable_CDC_Calibration+0x52>
   22e68:	481a      	ldr	r0, [pc, #104]	; (22ed4 <HAL_SDRAM_LPDDR2_Disable_CDC_Calibration+0xc4>)
   22e6a:	1820      	adds	r0, r4, r0
   22e6c:	6b01      	ldr	r1, [r0, #48]	; 0x30
   22e6e:	0749      	lsls	r1, r1, #29
   22e70:	d5fc      	bpl.n	22e6c <HAL_SDRAM_LPDDR2_Disable_CDC_Calibration+0x5c>
   22e72:	4819      	ldr	r0, [pc, #100]	; (22ed8 <HAL_SDRAM_LPDDR2_Disable_CDC_Calibration+0xc8>)
   22e74:	1820      	adds	r0, r4, r0
   22e76:	6901      	ldr	r1, [r0, #16]
   22e78:	0749      	lsls	r1, r1, #29
   22e7a:	d5fc      	bpl.n	22e76 <HAL_SDRAM_LPDDR2_Disable_CDC_Calibration+0x66>
   22e7c:	4817      	ldr	r0, [pc, #92]	; (22edc <HAL_SDRAM_LPDDR2_Disable_CDC_Calibration+0xcc>)
   22e7e:	1820      	adds	r0, r4, r0
   22e80:	6901      	ldr	r1, [r0, #16]
   22e82:	0749      	lsls	r1, r1, #29
   22e84:	d5fc      	bpl.n	22e80 <HAL_SDRAM_LPDDR2_Disable_CDC_Calibration+0x70>
   22e86:	4816      	ldr	r0, [pc, #88]	; (22ee0 <HAL_SDRAM_LPDDR2_Disable_CDC_Calibration+0xd0>)
   22e88:	1820      	adds	r0, r4, r0
   22e8a:	6901      	ldr	r1, [r0, #16]
   22e8c:	0749      	lsls	r1, r1, #29
   22e8e:	d5fc      	bpl.n	22e8a <HAL_SDRAM_LPDDR2_Disable_CDC_Calibration+0x7a>
   22e90:	4814      	ldr	r0, [pc, #80]	; (22ee4 <HAL_SDRAM_LPDDR2_Disable_CDC_Calibration+0xd4>)
   22e92:	1820      	adds	r0, r4, r0
   22e94:	6901      	ldr	r1, [r0, #16]
   22e96:	0749      	lsls	r1, r1, #29
   22e98:	d5fc      	bpl.n	22e94 <HAL_SDRAM_LPDDR2_Disable_CDC_Calibration+0x84>
   22e9a:	4813      	ldr	r0, [pc, #76]	; (22ee8 <HAL_SDRAM_LPDDR2_Disable_CDC_Calibration+0xd8>)
   22e9c:	1820      	adds	r0, r4, r0
   22e9e:	6b01      	ldr	r1, [r0, #48]	; 0x30
   22ea0:	0749      	lsls	r1, r1, #29
   22ea2:	d5fc      	bpl.n	22e9e <HAL_SDRAM_LPDDR2_Disable_CDC_Calibration+0x8e>
   22ea4:	bc70      	pop	{r4, r5, r6}
   22ea6:	bc08      	pop	{r3}
   22ea8:	4718      	bx	r3
   22eaa:	2400      	movs	r4, #0
   22eac:	e7b5      	b.n	22e1a <HAL_SDRAM_LPDDR2_Disable_CDC_Calibration+0xa>
   22eae:	0000      	.short	0x0000
   22eb0:	1a700000 	.word	0x1a700000
   22eb4:	01f0ffff 	.word	0x01f0ffff
   22eb8:	1a780000 	.word	0x1a780000
   22ebc:	1ab00000 	.word	0x1ab00000
   22ec0:	1a700030 	.word	0x1a700030
   22ec4:	01fd37ff 	.word	0x01fd37ff
   22ec8:	1a700040 	.word	0x1a700040
   22ecc:	1a800040 	.word	0x1a800040
   22ed0:	1a900040 	.word	0x1a900040
   22ed4:	1aa00040 	.word	0x1aa00040
   22ed8:	1a7000c0 	.word	0x1a7000c0
   22edc:	1a8000c0 	.word	0x1a8000c0
   22ee0:	1a9000c0 	.word	0x1a9000c0
   22ee4:	1aa000c0 	.word	0x1aa000c0
   22ee8:	1ab00040 	.word	0x1ab00040

00022eec <HAL_SDRAM_LPDDR2_Disable_HW_IO_Cal>:
   22eec:	b510      	push	{r4, lr}
   22eee:	2800      	cmp	r0, #0
   22ef0:	d001      	beq.n	22ef6 <HAL_SDRAM_LPDDR2_Disable_HW_IO_Cal+0xa>
   22ef2:	2005      	movs	r0, #5
   22ef4:	0500      	lsls	r0, r0, #20
   22ef6:	490c      	ldr	r1, [pc, #48]	; (22f28 <HAL_SDRAM_LPDDR2_Disable_HW_IO_Cal+0x3c>)
   22ef8:	1844      	adds	r4, r0, r1
   22efa:	6a20      	ldr	r0, [r4, #32]
   22efc:	490b      	ldr	r1, [pc, #44]	; (22f2c <HAL_SDRAM_LPDDR2_Disable_HW_IO_Cal+0x40>)
   22efe:	4008      	ands	r0, r1
   22f00:	6220      	str	r0, [r4, #32]
   22f02:	2100      	movs	r1, #0
   22f04:	2041      	movs	r0, #65	; 0x41
   22f06:	f7ff fd1f 	bl	22948 <HAL_SDRAM_DDR_Wait>
   22f0a:	6b60      	ldr	r0, [r4, #52]	; 0x34
   22f0c:	0340      	lsls	r0, r0, #13
   22f0e:	d5fc      	bpl.n	22f0a <HAL_SDRAM_LPDDR2_Disable_HW_IO_Cal+0x1e>
   22f10:	6a20      	ldr	r0, [r4, #32]
   22f12:	4907      	ldr	r1, [pc, #28]	; (22f30 <HAL_SDRAM_LPDDR2_Disable_HW_IO_Cal+0x44>)
   22f14:	4008      	ands	r0, r1
   22f16:	6220      	str	r0, [r4, #32]
   22f18:	6a20      	ldr	r0, [r4, #32]
   22f1a:	1c49      	adds	r1, r1, #1
   22f1c:	4008      	ands	r0, r1
   22f1e:	6220      	str	r0, [r4, #32]
   22f20:	bc10      	pop	{r4}
   22f22:	bc08      	pop	{r3}
   22f24:	4718      	bx	r3
   22f26:	0000      	.short	0x0000
   22f28:	1ab000c0 	.word	0x1ab000c0
   22f2c:	b31f377f 	.word	0xb31f377f
   22f30:	f31f377d 	.word	0xf31f377d

00022f34 <HAL_SDRAM_LPDDR2_Disable_Rapid_CDC_Calibration>:
   22f34:	b5f8      	push	{r3, r4, r5, r6, r7, lr}
   22f36:	2800      	cmp	r0, #0
   22f38:	d070      	beq.n	2301c <HAL_SDRAM_LPDDR2_Disable_Rapid_CDC_Calibration+0xe8>
   22f3a:	2405      	movs	r4, #5
   22f3c:	0524      	lsls	r4, r4, #20
   22f3e:	4838      	ldr	r0, [pc, #224]	; (23020 <HAL_SDRAM_LPDDR2_Disable_Rapid_CDC_Calibration+0xec>)
   22f40:	1826      	adds	r6, r4, r0
   22f42:	6bf0      	ldr	r0, [r6, #60]	; 0x3c
   22f44:	0581      	lsls	r1, r0, #22
   22f46:	4837      	ldr	r0, [pc, #220]	; (23024 <HAL_SDRAM_LPDDR2_Disable_Rapid_CDC_Calibration+0xf0>)
   22f48:	0d89      	lsrs	r1, r1, #22
   22f4a:	1827      	adds	r7, r4, r0
   22f4c:	63f9      	str	r1, [r7, #60]	; 0x3c
   22f4e:	4836      	ldr	r0, [pc, #216]	; (23028 <HAL_SDRAM_LPDDR2_Disable_Rapid_CDC_Calibration+0xf4>)
   22f50:	1825      	adds	r5, r4, r0
   22f52:	6be8      	ldr	r0, [r5, #60]	; 0x3c
   22f54:	0580      	lsls	r0, r0, #22
   22f56:	0d80      	lsrs	r0, r0, #22
   22f58:	63e8      	str	r0, [r5, #60]	; 0x3c
   22f5a:	2201      	movs	r2, #1
   22f5c:	4833      	ldr	r0, [pc, #204]	; (2302c <HAL_SDRAM_LPDDR2_Disable_Rapid_CDC_Calibration+0xf8>)
   22f5e:	2300      	movs	r3, #0
   22f60:	0452      	lsls	r2, r2, #17
   22f62:	0021      	movs	r1, r4
   22f64:	f000 fe9d 	bl	23ca2 <HAL_SDRAM_Manual_Broadcast>
   22f68:	6b28      	ldr	r0, [r5, #48]	; 0x30
   22f6a:	4931      	ldr	r1, [pc, #196]	; (23030 <HAL_SDRAM_LPDDR2_Disable_Rapid_CDC_Calibration+0xfc>)
   22f6c:	4008      	ands	r0, r1
   22f6e:	6328      	str	r0, [r5, #48]	; 0x30
   22f70:	4830      	ldr	r0, [pc, #192]	; (23034 <HAL_SDRAM_LPDDR2_Disable_Rapid_CDC_Calibration+0x100>)
   22f72:	4a31      	ldr	r2, [pc, #196]	; (23038 <HAL_SDRAM_LPDDR2_Disable_Rapid_CDC_Calibration+0x104>)
   22f74:	1821      	adds	r1, r4, r0
   22f76:	6b08      	ldr	r0, [r1, #48]	; 0x30
   22f78:	0740      	lsls	r0, r0, #29
   22f7a:	d5fc      	bpl.n	22f76 <HAL_SDRAM_LPDDR2_Disable_Rapid_CDC_Calibration+0x42>
   22f7c:	482f      	ldr	r0, [pc, #188]	; (2303c <HAL_SDRAM_LPDDR2_Disable_Rapid_CDC_Calibration+0x108>)
   22f7e:	1820      	adds	r0, r4, r0
   22f80:	6b03      	ldr	r3, [r0, #48]	; 0x30
   22f82:	075b      	lsls	r3, r3, #29
   22f84:	d5fc      	bpl.n	22f80 <HAL_SDRAM_LPDDR2_Disable_Rapid_CDC_Calibration+0x4c>
   22f86:	482e      	ldr	r0, [pc, #184]	; (23040 <HAL_SDRAM_LPDDR2_Disable_Rapid_CDC_Calibration+0x10c>)
   22f88:	1820      	adds	r0, r4, r0
   22f8a:	6b03      	ldr	r3, [r0, #48]	; 0x30
   22f8c:	075b      	lsls	r3, r3, #29
   22f8e:	d5fc      	bpl.n	22f8a <HAL_SDRAM_LPDDR2_Disable_Rapid_CDC_Calibration+0x56>
   22f90:	482c      	ldr	r0, [pc, #176]	; (23044 <HAL_SDRAM_LPDDR2_Disable_Rapid_CDC_Calibration+0x110>)
   22f92:	1820      	adds	r0, r4, r0
   22f94:	6b03      	ldr	r3, [r0, #48]	; 0x30
   22f96:	075b      	lsls	r3, r3, #29
   22f98:	d5fc      	bpl.n	22f94 <HAL_SDRAM_LPDDR2_Disable_Rapid_CDC_Calibration+0x60>
   22f9a:	482b      	ldr	r0, [pc, #172]	; (23048 <HAL_SDRAM_LPDDR2_Disable_Rapid_CDC_Calibration+0x114>)
   22f9c:	1820      	adds	r0, r4, r0
   22f9e:	6903      	ldr	r3, [r0, #16]
   22fa0:	075b      	lsls	r3, r3, #29
   22fa2:	d5fc      	bpl.n	22f9e <HAL_SDRAM_LPDDR2_Disable_Rapid_CDC_Calibration+0x6a>
   22fa4:	4829      	ldr	r0, [pc, #164]	; (2304c <HAL_SDRAM_LPDDR2_Disable_Rapid_CDC_Calibration+0x118>)
   22fa6:	1820      	adds	r0, r4, r0
   22fa8:	6903      	ldr	r3, [r0, #16]
   22faa:	075b      	lsls	r3, r3, #29
   22fac:	d5fc      	bpl.n	22fa8 <HAL_SDRAM_LPDDR2_Disable_Rapid_CDC_Calibration+0x74>
   22fae:	4828      	ldr	r0, [pc, #160]	; (23050 <HAL_SDRAM_LPDDR2_Disable_Rapid_CDC_Calibration+0x11c>)
   22fb0:	1820      	adds	r0, r4, r0
   22fb2:	6903      	ldr	r3, [r0, #16]
   22fb4:	075b      	lsls	r3, r3, #29
   22fb6:	d5fc      	bpl.n	22fb2 <HAL_SDRAM_LPDDR2_Disable_Rapid_CDC_Calibration+0x7e>
   22fb8:	4826      	ldr	r0, [pc, #152]	; (23054 <HAL_SDRAM_LPDDR2_Disable_Rapid_CDC_Calibration+0x120>)
   22fba:	1820      	adds	r0, r4, r0
   22fbc:	6903      	ldr	r3, [r0, #16]
   22fbe:	075b      	lsls	r3, r3, #29
   22fc0:	d5fc      	bpl.n	22fbc <HAL_SDRAM_LPDDR2_Disable_Rapid_CDC_Calibration+0x88>
   22fc2:	18a0      	adds	r0, r4, r2
   22fc4:	6b02      	ldr	r2, [r0, #48]	; 0x30
   22fc6:	0752      	lsls	r2, r2, #29
   22fc8:	d5fc      	bpl.n	22fc4 <HAL_SDRAM_LPDDR2_Disable_Rapid_CDC_Calibration+0x90>
   22fca:	6809      	ldr	r1, [r1, #0]
   22fcc:	4b22      	ldr	r3, [pc, #136]	; (23058 <HAL_SDRAM_LPDDR2_Disable_Rapid_CDC_Calibration+0x124>)
   22fce:	2201      	movs	r2, #1
   22fd0:	4019      	ands	r1, r3
   22fd2:	0352      	lsls	r2, r2, #13
   22fd4:	1889      	adds	r1, r1, r2
   22fd6:	4a21      	ldr	r2, [pc, #132]	; (2305c <HAL_SDRAM_LPDDR2_Disable_Rapid_CDC_Calibration+0x128>)
   22fd8:	18a2      	adds	r2, r4, r2
   22fda:	6011      	str	r1, [r2, #0]
   22fdc:	6801      	ldr	r1, [r0, #0]
   22fde:	2201      	movs	r2, #1
   22fe0:	4019      	ands	r1, r3
   22fe2:	0352      	lsls	r2, r2, #13
   22fe4:	1889      	adds	r1, r1, r2
   22fe6:	6001      	str	r1, [r0, #0]
   22fe8:	6bb1      	ldr	r1, [r6, #56]	; 0x38
   22fea:	481d      	ldr	r0, [pc, #116]	; (23060 <HAL_SDRAM_LPDDR2_Disable_Rapid_CDC_Calibration+0x12c>)
   22fec:	00d2      	lsls	r2, r2, #3
   22fee:	4001      	ands	r1, r0
   22ff0:	4311      	orrs	r1, r2
   22ff2:	63b9      	str	r1, [r7, #56]	; 0x38
   22ff4:	6ba9      	ldr	r1, [r5, #56]	; 0x38
   22ff6:	4001      	ands	r1, r0
   22ff8:	4311      	orrs	r1, r2
   22ffa:	63a9      	str	r1, [r5, #56]	; 0x38
   22ffc:	0056      	lsls	r6, r2, #1
   22ffe:	0033      	movs	r3, r6
   23000:	480a      	ldr	r0, [pc, #40]	; (2302c <HAL_SDRAM_LPDDR2_Disable_Rapid_CDC_Calibration+0xf8>)
   23002:	001a      	movs	r2, r3
   23004:	0021      	movs	r1, r4
   23006:	f000 fe4c 	bl	23ca2 <HAL_SDRAM_Manual_Broadcast>
   2300a:	6b28      	ldr	r0, [r5, #48]	; 0x30
   2300c:	4915      	ldr	r1, [pc, #84]	; (23064 <HAL_SDRAM_LPDDR2_Disable_Rapid_CDC_Calibration+0x130>)
   2300e:	4008      	ands	r0, r1
   23010:	4330      	orrs	r0, r6
   23012:	6328      	str	r0, [r5, #48]	; 0x30
   23014:	bcf8      	pop	{r3, r4, r5, r6, r7}
   23016:	bc08      	pop	{r3}
   23018:	4718      	bx	r3
   2301a:	e7ff      	b.n	2301c <HAL_SDRAM_LPDDR2_Disable_Rapid_CDC_Calibration+0xe8>
   2301c:	2400      	movs	r4, #0
   2301e:	e78e      	b.n	22f3e <HAL_SDRAM_LPDDR2_Disable_Rapid_CDC_Calibration+0xa>
   23020:	1a700000 	.word	0x1a700000
   23024:	1a780000 	.word	0x1a780000
   23028:	1ab00000 	.word	0x1ab00000
   2302c:	1a700030 	.word	0x1a700030
   23030:	01fd37ff 	.word	0x01fd37ff
   23034:	1a700040 	.word	0x1a700040
   23038:	1ab00040 	.word	0x1ab00040
   2303c:	1a800040 	.word	0x1a800040
   23040:	1a900040 	.word	0x1a900040
   23044:	1aa00040 	.word	0x1aa00040
   23048:	1a7000c0 	.word	0x1a7000c0
   2304c:	1a8000c0 	.word	0x1a8000c0
   23050:	1a9000c0 	.word	0x1a9000c0
   23054:	1aa000c0 	.word	0x1aa000c0
   23058:	ffff003f 	.word	0xffff003f
   2305c:	1a780040 	.word	0x1a780040
   23060:	01f1ffff 	.word	0x01f1ffff
   23064:	01ff37ff 	.word	0x01ff37ff

00023068 <HAL_SDRAM_LPDDR2_Disable_Temperature_Compensated_Refresh>:
   23068:	4770      	bx	lr

0002306a <HAL_SDRAM_LPDDR2_Enable_CDC_Calibration>:
   2306a:	4770      	bx	lr

0002306c <HAL_SDRAM_LPDDR2_Enable_HW_IO_Cal>:
   2306c:	b5f8      	push	{r3, r4, r5, r6, r7, lr}
   2306e:	2800      	cmp	r0, #0
   23070:	d050      	beq.n	23114 <HAL_SDRAM_LPDDR2_Enable_HW_IO_Cal+0xa8>
   23072:	2505      	movs	r5, #5
   23074:	052d      	lsls	r5, r5, #20
   23076:	2603      	movs	r6, #3
   23078:	0536      	lsls	r6, r6, #20
   2307a:	4828      	ldr	r0, [pc, #160]	; (2311c <HAL_SDRAM_LPDDR2_Enable_HW_IO_Cal+0xb0>)
   2307c:	182c      	adds	r4, r5, r0
   2307e:	6a20      	ldr	r0, [r4, #32]
   23080:	4927      	ldr	r1, [pc, #156]	; (23120 <HAL_SDRAM_LPDDR2_Enable_HW_IO_Cal+0xb4>)
   23082:	4008      	ands	r0, r1
   23084:	2103      	movs	r1, #3
   23086:	4308      	orrs	r0, r1
   23088:	6220      	str	r0, [r4, #32]
   2308a:	2100      	movs	r1, #0
   2308c:	200a      	movs	r0, #10
   2308e:	f7ff fc5b 	bl	22948 <HAL_SDRAM_DDR_Wait>
   23092:	6a20      	ldr	r0, [r4, #32]
   23094:	4923      	ldr	r1, [pc, #140]	; (23124 <HAL_SDRAM_LPDDR2_Enable_HW_IO_Cal+0xb8>)
   23096:	4008      	ands	r0, r1
   23098:	2103      	movs	r1, #3
   2309a:	0249      	lsls	r1, r1, #9
   2309c:	1840      	adds	r0, r0, r1
   2309e:	6220      	str	r0, [r4, #32]
   230a0:	4821      	ldr	r0, [pc, #132]	; (23128 <HAL_SDRAM_LPDDR2_Enable_HW_IO_Cal+0xbc>)
   230a2:	6a00      	ldr	r0, [r0, #32]
   230a4:	6220      	str	r0, [r4, #32]
   230a6:	2100      	movs	r1, #0
   230a8:	200a      	movs	r0, #10
   230aa:	f7ff fc4d 	bl	22948 <HAL_SDRAM_DDR_Wait>
   230ae:	2701      	movs	r7, #1
   230b0:	07ff      	lsls	r7, r7, #31
   230b2:	003b      	movs	r3, r7
   230b4:	481d      	ldr	r0, [pc, #116]	; (2312c <HAL_SDRAM_LPDDR2_Enable_HW_IO_Cal+0xc0>)
   230b6:	001a      	movs	r2, r3
   230b8:	0029      	movs	r1, r5
   230ba:	f000 fdf2 	bl	23ca2 <HAL_SDRAM_Manual_Broadcast>
   230be:	003b      	movs	r3, r7
   230c0:	481b      	ldr	r0, [pc, #108]	; (23130 <HAL_SDRAM_LPDDR2_Enable_HW_IO_Cal+0xc4>)
   230c2:	001a      	movs	r2, r3
   230c4:	0029      	movs	r1, r5
   230c6:	f000 fdec 	bl	23ca2 <HAL_SDRAM_Manual_Broadcast>
   230ca:	481a      	ldr	r0, [pc, #104]	; (23134 <HAL_SDRAM_LPDDR2_Enable_HW_IO_Cal+0xc8>)
   230cc:	1828      	adds	r0, r5, r0
   230ce:	6007      	str	r7, [r0, #0]
   230d0:	6107      	str	r7, [r0, #16]
   230d2:	4815      	ldr	r0, [pc, #84]	; (23128 <HAL_SDRAM_LPDDR2_Enable_HW_IO_Cal+0xbc>)
   230d4:	6a40      	ldr	r0, [r0, #36]	; 0x24
   230d6:	6260      	str	r0, [r4, #36]	; 0x24
   230d8:	4813      	ldr	r0, [pc, #76]	; (23128 <HAL_SDRAM_LPDDR2_Enable_HW_IO_Cal+0xbc>)
   230da:	6a80      	ldr	r0, [r0, #40]	; 0x28
   230dc:	62a0      	str	r0, [r4, #40]	; 0x28
   230de:	6a20      	ldr	r0, [r4, #32]
   230e0:	490f      	ldr	r1, [pc, #60]	; (23120 <HAL_SDRAM_LPDDR2_Enable_HW_IO_Cal+0xb4>)
   230e2:	4008      	ands	r0, r1
   230e4:	4338      	orrs	r0, r7
   230e6:	6220      	str	r0, [r4, #32]
   230e8:	6b60      	ldr	r0, [r4, #52]	; 0x34
   230ea:	0340      	lsls	r0, r0, #13
   230ec:	d5fc      	bpl.n	230e8 <HAL_SDRAM_LPDDR2_Enable_HW_IO_Cal+0x7c>
   230ee:	6a20      	ldr	r0, [r4, #32]
   230f0:	4911      	ldr	r1, [pc, #68]	; (23138 <HAL_SDRAM_LPDDR2_Enable_HW_IO_Cal+0xcc>)
   230f2:	4008      	ands	r0, r1
   230f4:	6220      	str	r0, [r4, #32]
   230f6:	2015      	movs	r0, #21
   230f8:	04c0      	lsls	r0, r0, #19
   230fa:	1830      	adds	r0, r6, r0
   230fc:	6800      	ldr	r0, [r0, #0]
   230fe:	03c0      	lsls	r0, r0, #15
   23100:	d505      	bpl.n	2310e <HAL_SDRAM_LPDDR2_Enable_HW_IO_Cal+0xa2>
   23102:	6a20      	ldr	r0, [r4, #32]
   23104:	4906      	ldr	r1, [pc, #24]	; (23120 <HAL_SDRAM_LPDDR2_Enable_HW_IO_Cal+0xb4>)
   23106:	4008      	ands	r0, r1
   23108:	490c      	ldr	r1, [pc, #48]	; (2313c <HAL_SDRAM_LPDDR2_Enable_HW_IO_Cal+0xd0>)
   2310a:	4308      	orrs	r0, r1
   2310c:	6220      	str	r0, [r4, #32]
   2310e:	bcf8      	pop	{r3, r4, r5, r6, r7}
   23110:	bc08      	pop	{r3}
   23112:	4718      	bx	r3
   23114:	2500      	movs	r5, #0
   23116:	002e      	movs	r6, r5
   23118:	e7af      	b.n	2307a <HAL_SDRAM_LPDDR2_Enable_HW_IO_Cal+0xe>
   2311a:	0000      	.short	0x0000
   2311c:	1ab000c0 	.word	0x1ab000c0
   23120:	f31f377f 	.word	0xf31f377f
   23124:	331f307f 	.word	0x331f307f
   23128:	0003abd8 	.word	0x0003abd8
   2312c:	1a700100 	.word	0x1a700100
   23130:	1a700110 	.word	0x1a700110
   23134:	1ab00100 	.word	0x1ab00100
   23138:	731f377f 	.word	0x731f377f
   2313c:	40000100 	.word	0x40000100

00023140 <HAL_SDRAM_LPDDR2_Enable_Rapid_CDC_Calibration>:
   23140:	b570      	push	{r4, r5, r6, lr}
   23142:	2800      	cmp	r0, #0
   23144:	d033      	beq.n	231ae <HAL_SDRAM_LPDDR2_Enable_Rapid_CDC_Calibration+0x6e>
   23146:	2405      	movs	r4, #5
   23148:	0524      	lsls	r4, r4, #20
   2314a:	f7ff fe61 	bl	22e10 <HAL_SDRAM_LPDDR2_Disable_CDC_Calibration>
   2314e:	4819      	ldr	r0, [pc, #100]	; (231b4 <HAL_SDRAM_LPDDR2_Enable_Rapid_CDC_Calibration+0x74>)
   23150:	1820      	adds	r0, r4, r0
   23152:	6800      	ldr	r0, [r0, #0]
   23154:	4a18      	ldr	r2, [pc, #96]	; (231b8 <HAL_SDRAM_LPDDR2_Enable_Rapid_CDC_Calibration+0x78>)
   23156:	2101      	movs	r1, #1
   23158:	4b18      	ldr	r3, [pc, #96]	; (231bc <HAL_SDRAM_LPDDR2_Enable_Rapid_CDC_Calibration+0x7c>)
   2315a:	4010      	ands	r0, r2
   2315c:	0309      	lsls	r1, r1, #12
   2315e:	1840      	adds	r0, r0, r1
   23160:	18e3      	adds	r3, r4, r3
   23162:	6018      	str	r0, [r3, #0]
   23164:	4816      	ldr	r0, [pc, #88]	; (231c0 <HAL_SDRAM_LPDDR2_Enable_Rapid_CDC_Calibration+0x80>)
   23166:	1820      	adds	r0, r4, r0
   23168:	6803      	ldr	r3, [r0, #0]
   2316a:	4013      	ands	r3, r2
   2316c:	185a      	adds	r2, r3, r1
   2316e:	6002      	str	r2, [r0, #0]
   23170:	4814      	ldr	r0, [pc, #80]	; (231c4 <HAL_SDRAM_LPDDR2_Enable_Rapid_CDC_Calibration+0x84>)
   23172:	1820      	adds	r0, r4, r0
   23174:	6bc0      	ldr	r0, [r0, #60]	; 0x3c
   23176:	4a14      	ldr	r2, [pc, #80]	; (231c8 <HAL_SDRAM_LPDDR2_Enable_Rapid_CDC_Calibration+0x88>)
   23178:	0580      	lsls	r0, r0, #22
   2317a:	0d80      	lsrs	r0, r0, #22
   2317c:	1840      	adds	r0, r0, r1
   2317e:	18a2      	adds	r2, r4, r2
   23180:	63d0      	str	r0, [r2, #60]	; 0x3c
   23182:	4812      	ldr	r0, [pc, #72]	; (231cc <HAL_SDRAM_LPDDR2_Enable_Rapid_CDC_Calibration+0x8c>)
   23184:	1825      	adds	r5, r4, r0
   23186:	6be8      	ldr	r0, [r5, #60]	; 0x3c
   23188:	0580      	lsls	r0, r0, #22
   2318a:	0d80      	lsrs	r0, r0, #22
   2318c:	1840      	adds	r0, r0, r1
   2318e:	63e8      	str	r0, [r5, #60]	; 0x3c
   23190:	014e      	lsls	r6, r1, #5
   23192:	0033      	movs	r3, r6
   23194:	480e      	ldr	r0, [pc, #56]	; (231d0 <HAL_SDRAM_LPDDR2_Enable_Rapid_CDC_Calibration+0x90>)
   23196:	001a      	movs	r2, r3
   23198:	0021      	movs	r1, r4
   2319a:	f000 fd82 	bl	23ca2 <HAL_SDRAM_Manual_Broadcast>
   2319e:	6b28      	ldr	r0, [r5, #48]	; 0x30
   231a0:	490c      	ldr	r1, [pc, #48]	; (231d4 <HAL_SDRAM_LPDDR2_Enable_Rapid_CDC_Calibration+0x94>)
   231a2:	4008      	ands	r0, r1
   231a4:	4330      	orrs	r0, r6
   231a6:	6328      	str	r0, [r5, #48]	; 0x30
   231a8:	bc70      	pop	{r4, r5, r6}
   231aa:	bc08      	pop	{r3}
   231ac:	4718      	bx	r3
   231ae:	2400      	movs	r4, #0
   231b0:	e7cb      	b.n	2314a <HAL_SDRAM_LPDDR2_Enable_Rapid_CDC_Calibration+0xa>
   231b2:	0000      	.short	0x0000
   231b4:	1a700040 	.word	0x1a700040
   231b8:	ffff003f 	.word	0xffff003f
   231bc:	1a780040 	.word	0x1a780040
   231c0:	1ab00040 	.word	0x1ab00040
   231c4:	1a700000 	.word	0x1a700000
   231c8:	1a780000 	.word	0x1a780000
   231cc:	1ab00000 	.word	0x1ab00000
   231d0:	1a700030 	.word	0x1a700030
   231d4:	01ff37ff 	.word	0x01ff37ff

000231d8 <HAL_SDRAM_LPDDR2_Enable_Temperature_Compensated_Refresh>:
   231d8:	4770      	bx	lr
	...

000231dc <HAL_SDRAM_LPDDR2_Enter_Deep_Powerdown>:
   231dc:	b570      	push	{r4, r5, r6, lr}
   231de:	0006      	movs	r6, r0
   231e0:	000c      	movs	r4, r1
   231e2:	2800      	cmp	r0, #0
   231e4:	d058      	beq.n	23298 <HAL_SDRAM_LPDDR2_Enter_Deep_Powerdown+0xbc>
   231e6:	2503      	movs	r5, #3
   231e8:	052d      	lsls	r5, r5, #20
   231ea:	4a2c      	ldr	r2, [pc, #176]	; (2329c <HAL_SDRAM_LPDDR2_Enter_Deep_Powerdown+0xc0>)
   231ec:	492c      	ldr	r1, [pc, #176]	; (232a0 <HAL_SDRAM_LPDDR2_Enter_Deep_Powerdown+0xc4>)
   231ee:	07e0      	lsls	r0, r4, #31
   231f0:	d003      	beq.n	231fa <HAL_SDRAM_LPDDR2_Enter_Deep_Powerdown+0x1e>
   231f2:	18a8      	adds	r0, r5, r2
   231f4:	6b03      	ldr	r3, [r0, #48]	; 0x30
   231f6:	438b      	bics	r3, r1
   231f8:	6303      	str	r3, [r0, #48]	; 0x30
   231fa:	07a0      	lsls	r0, r4, #30
   231fc:	d503      	bpl.n	23206 <HAL_SDRAM_LPDDR2_Enter_Deep_Powerdown+0x2a>
   231fe:	18a8      	adds	r0, r5, r2
   23200:	6b42      	ldr	r2, [r0, #52]	; 0x34
   23202:	438a      	bics	r2, r1
   23204:	6342      	str	r2, [r0, #52]	; 0x34
   23206:	0030      	movs	r0, r6
   23208:	f7ff fc64 	bl	22ad4 <HAL_SDRAM_Flush_Write_Buffer>
   2320c:	0021      	movs	r1, r4
   2320e:	0030      	movs	r0, r6
   23210:	f7ff fb8a 	bl	22928 <HAL_SDRAM_Configure_Chip_Select>
   23214:	2015      	movs	r0, #21
   23216:	04c0      	lsls	r0, r0, #19
   23218:	182a      	adds	r2, r5, r0
   2321a:	6910      	ldr	r0, [r2, #16]
   2321c:	2140      	movs	r1, #64	; 0x40
   2321e:	4308      	orrs	r0, r1
   23220:	6110      	str	r0, [r2, #16]
   23222:	07e0      	lsls	r0, r4, #31
   23224:	d002      	beq.n	2322c <HAL_SDRAM_LPDDR2_Enter_Deep_Powerdown+0x50>
   23226:	6850      	ldr	r0, [r2, #4]
   23228:	04c0      	lsls	r0, r0, #19
   2322a:	d5fc      	bpl.n	23226 <HAL_SDRAM_LPDDR2_Enter_Deep_Powerdown+0x4a>
   2322c:	07a0      	lsls	r0, r4, #30
   2322e:	d502      	bpl.n	23236 <HAL_SDRAM_LPDDR2_Enter_Deep_Powerdown+0x5a>
   23230:	6850      	ldr	r0, [r2, #4]
   23232:	0480      	lsls	r0, r0, #18
   23234:	d5fc      	bpl.n	23230 <HAL_SDRAM_LPDDR2_Enter_Deep_Powerdown+0x54>
   23236:	6910      	ldr	r0, [r2, #16]
   23238:	2101      	movs	r1, #1
   2323a:	0389      	lsls	r1, r1, #14
   2323c:	4388      	bics	r0, r1
   2323e:	6110      	str	r0, [r2, #16]
   23240:	6910      	ldr	r0, [r2, #16]
   23242:	1049      	asrs	r1, r1, #1
   23244:	4388      	bics	r0, r1
   23246:	6110      	str	r0, [r2, #16]
   23248:	07e0      	lsls	r0, r4, #31
   2324a:	d007      	beq.n	2325c <HAL_SDRAM_LPDDR2_Enter_Deep_Powerdown+0x80>
   2324c:	6810      	ldr	r0, [r2, #0]
   2324e:	00c9      	lsls	r1, r1, #3
   23250:	4388      	bics	r0, r1
   23252:	6010      	str	r0, [r2, #0]
   23254:	6810      	ldr	r0, [r2, #0]
   23256:	0840      	lsrs	r0, r0, #1
   23258:	0040      	lsls	r0, r0, #1
   2325a:	6010      	str	r0, [r2, #0]
   2325c:	07a0      	lsls	r0, r4, #30
   2325e:	d508      	bpl.n	23272 <HAL_SDRAM_LPDDR2_Enter_Deep_Powerdown+0x96>
   23260:	6810      	ldr	r0, [r2, #0]
   23262:	2101      	movs	r1, #1
   23264:	0449      	lsls	r1, r1, #17
   23266:	4388      	bics	r0, r1
   23268:	6010      	str	r0, [r2, #0]
   2326a:	6810      	ldr	r0, [r2, #0]
   2326c:	2102      	movs	r1, #2
   2326e:	4388      	bics	r0, r1
   23270:	6010      	str	r0, [r2, #0]
   23272:	6810      	ldr	r0, [r2, #0]
   23274:	0380      	lsls	r0, r0, #14
   23276:	0f80      	lsrs	r0, r0, #30
   23278:	d10b      	bne.n	23292 <HAL_SDRAM_LPDDR2_Enter_Deep_Powerdown+0xb6>
   2327a:	480a      	ldr	r0, [pc, #40]	; (232a4 <HAL_SDRAM_LPDDR2_Enter_Deep_Powerdown+0xc8>)
   2327c:	1828      	adds	r0, r5, r0
   2327e:	6801      	ldr	r1, [r0, #0]
   23280:	2204      	movs	r2, #4
   23282:	4311      	orrs	r1, r2
   23284:	6001      	str	r1, [r0, #0]
   23286:	0030      	movs	r0, r6
   23288:	f7ff fb6c 	bl	22964 <HAL_SDRAM_Disable_HW_IO_Cal>
   2328c:	0030      	movs	r0, r6
   2328e:	f7ff fb61 	bl	22954 <HAL_SDRAM_Disable_CDC_Calibration>
   23292:	bc70      	pop	{r4, r5, r6}
   23294:	bc08      	pop	{r3}
   23296:	4718      	bx	r3
   23298:	2500      	movs	r5, #0
   2329a:	e7a6      	b.n	231ea <HAL_SDRAM_LPDDR2_Enter_Deep_Powerdown+0xe>
   2329c:	00a40000 	.word	0x00a40000
   232a0:	00008000 	.word	0x00008000
   232a4:	00a80040 	.word	0x00a80040

000232a8 <HAL_SDRAM_LPDDR2_Enter_Self_Refresh>:
   232a8:	b5f8      	push	{r3, r4, r5, r6, r7, lr}
   232aa:	0007      	movs	r7, r0
   232ac:	000e      	movs	r6, r1
   232ae:	2800      	cmp	r0, #0
   232b0:	d031      	beq.n	23316 <HAL_SDRAM_LPDDR2_Enter_Self_Refresh+0x6e>
   232b2:	2503      	movs	r5, #3
   232b4:	052d      	lsls	r5, r5, #20
   232b6:	f001 fa1f 	bl	246f8 <HAL_SDRAM_Stall_Ctlr>
   232ba:	4818      	ldr	r0, [pc, #96]	; (2331c <HAL_SDRAM_LPDDR2_Enter_Self_Refresh+0x74>)
   232bc:	182c      	adds	r4, r5, r0
   232be:	6860      	ldr	r0, [r4, #4]
   232c0:	2107      	movs	r1, #7
   232c2:	0709      	lsls	r1, r1, #28
   232c4:	4388      	bics	r0, r1
   232c6:	6060      	str	r0, [r4, #4]
   232c8:	2015      	movs	r0, #21
   232ca:	04c0      	lsls	r0, r0, #19
   232cc:	182d      	adds	r5, r5, r0
   232ce:	6aa8      	ldr	r0, [r5, #40]	; 0x28
   232d0:	1309      	asrs	r1, r1, #12
   232d2:	4388      	bics	r0, r1
   232d4:	62a8      	str	r0, [r5, #40]	; 0x28
   232d6:	0038      	movs	r0, r7
   232d8:	f7ff fbfc 	bl	22ad4 <HAL_SDRAM_Flush_Write_Buffer>
   232dc:	07f0      	lsls	r0, r6, #31
   232de:	d007      	beq.n	232f0 <HAL_SDRAM_LPDDR2_Enter_Self_Refresh+0x48>
   232e0:	6820      	ldr	r0, [r4, #0]
   232e2:	2101      	movs	r1, #1
   232e4:	0689      	lsls	r1, r1, #26
   232e6:	4308      	orrs	r0, r1
   232e8:	6020      	str	r0, [r4, #0]
   232ea:	6868      	ldr	r0, [r5, #4]
   232ec:	05c0      	lsls	r0, r0, #23
   232ee:	d5fc      	bpl.n	232ea <HAL_SDRAM_LPDDR2_Enter_Self_Refresh+0x42>
   232f0:	07b0      	lsls	r0, r6, #30
   232f2:	d507      	bpl.n	23304 <HAL_SDRAM_LPDDR2_Enter_Self_Refresh+0x5c>
   232f4:	6820      	ldr	r0, [r4, #0]
   232f6:	2101      	movs	r1, #1
   232f8:	06c9      	lsls	r1, r1, #27
   232fa:	4308      	orrs	r0, r1
   232fc:	6020      	str	r0, [r4, #0]
   232fe:	6868      	ldr	r0, [r5, #4]
   23300:	0580      	lsls	r0, r0, #22
   23302:	d5fc      	bpl.n	232fe <HAL_SDRAM_LPDDR2_Enter_Self_Refresh+0x56>
   23304:	0038      	movs	r0, r7
   23306:	f7ff fb25 	bl	22954 <HAL_SDRAM_Disable_CDC_Calibration>
   2330a:	0038      	movs	r0, r7
   2330c:	f7ff fb2a 	bl	22964 <HAL_SDRAM_Disable_HW_IO_Cal>
   23310:	bcf8      	pop	{r3, r4, r5, r6, r7}
   23312:	bc08      	pop	{r3}
   23314:	4718      	bx	r3
   23316:	2500      	movs	r5, #0
   23318:	e7cd      	b.n	232b6 <HAL_SDRAM_LPDDR2_Enter_Self_Refresh+0xe>
   2331a:	0000      	.short	0x0000
   2331c:	00a80040 	.word	0x00a80040

00023320 <HAL_SDRAM_LPDDR2_Exit_Deep_Power_Down>:
   23320:	b5f8      	push	{r3, r4, r5, r6, r7, lr}
   23322:	0017      	movs	r7, r2
   23324:	0006      	movs	r6, r0
   23326:	000d      	movs	r5, r1
   23328:	2800      	cmp	r0, #0
   2332a:	d020      	beq.n	2336e <HAL_SDRAM_LPDDR2_Exit_Deep_Power_Down+0x4e>
   2332c:	2403      	movs	r4, #3
   2332e:	0524      	lsls	r4, r4, #20
   23330:	f7ff fafa 	bl	22928 <HAL_SDRAM_Configure_Chip_Select>
   23334:	2015      	movs	r0, #21
   23336:	04c0      	lsls	r0, r0, #19
   23338:	1820      	adds	r0, r4, r0
   2333a:	6901      	ldr	r1, [r0, #16]
   2333c:	2220      	movs	r2, #32
   2333e:	4311      	orrs	r1, r2
   23340:	6101      	str	r1, [r0, #16]
   23342:	4b0c      	ldr	r3, [pc, #48]	; (23374 <HAL_SDRAM_LPDDR2_Exit_Deep_Power_Down+0x54>)
   23344:	4a0c      	ldr	r2, [pc, #48]	; (23378 <HAL_SDRAM_LPDDR2_Exit_Deep_Power_Down+0x58>)
   23346:	07e8      	lsls	r0, r5, #31
   23348:	d003      	beq.n	23352 <HAL_SDRAM_LPDDR2_Exit_Deep_Power_Down+0x32>
   2334a:	18e0      	adds	r0, r4, r3
   2334c:	6b01      	ldr	r1, [r0, #48]	; 0x30
   2334e:	4311      	orrs	r1, r2
   23350:	6301      	str	r1, [r0, #48]	; 0x30
   23352:	07a8      	lsls	r0, r5, #30
   23354:	d503      	bpl.n	2335e <HAL_SDRAM_LPDDR2_Exit_Deep_Power_Down+0x3e>
   23356:	18e0      	adds	r0, r4, r3
   23358:	6b41      	ldr	r1, [r0, #52]	; 0x34
   2335a:	4311      	orrs	r1, r2
   2335c:	6341      	str	r1, [r0, #52]	; 0x34
   2335e:	003a      	movs	r2, r7
   23360:	0029      	movs	r1, r5
   23362:	0030      	movs	r0, r6
   23364:	f7ff fc28 	bl	22bb8 <HAL_SDRAM_HW_Init>
   23368:	bcf8      	pop	{r3, r4, r5, r6, r7}
   2336a:	bc08      	pop	{r3}
   2336c:	4718      	bx	r3
   2336e:	2400      	movs	r4, #0
   23370:	e7de      	b.n	23330 <HAL_SDRAM_LPDDR2_Exit_Deep_Power_Down+0x10>
   23372:	0000      	.short	0x0000
   23374:	00a40000 	.word	0x00a40000
   23378:	00008000 	.word	0x00008000

0002337c <HAL_SDRAM_LPDDR2_Exit_Self_Refresh>:
   2337c:	b570      	push	{r4, r5, r6, lr}
   2337e:	0006      	movs	r6, r0
   23380:	000d      	movs	r5, r1
   23382:	2800      	cmp	r0, #0
   23384:	d04a      	beq.n	2341c <HAL_SDRAM_LPDDR2_Exit_Self_Refresh+0xa0>
   23386:	2403      	movs	r4, #3
   23388:	0524      	lsls	r4, r4, #20
   2338a:	f000 fca9 	bl	23ce0 <HAL_SDRAM_Manual_HW_IO_Cal>
   2338e:	0030      	movs	r0, r6
   23390:	f7ff fac2 	bl	22918 <HAL_SDRAM_CDC_SW_Recalibration>
   23394:	4a22      	ldr	r2, [pc, #136]	; (23420 <HAL_SDRAM_LPDDR2_Exit_Self_Refresh+0xa4>)
   23396:	07e8      	lsls	r0, r5, #31
   23398:	d004      	beq.n	233a4 <HAL_SDRAM_LPDDR2_Exit_Self_Refresh+0x28>
   2339a:	18a1      	adds	r1, r4, r2
   2339c:	6808      	ldr	r0, [r1, #0]
   2339e:	0513      	lsls	r3, r2, #20
   233a0:	4398      	bics	r0, r3
   233a2:	6008      	str	r0, [r1, #0]
   233a4:	07a8      	lsls	r0, r5, #30
   233a6:	d505      	bpl.n	233b4 <HAL_SDRAM_LPDDR2_Exit_Self_Refresh+0x38>
   233a8:	18a0      	adds	r0, r4, r2
   233aa:	6801      	ldr	r1, [r0, #0]
   233ac:	2301      	movs	r3, #1
   233ae:	06db      	lsls	r3, r3, #27
   233b0:	4399      	bics	r1, r3
   233b2:	6001      	str	r1, [r0, #0]
   233b4:	18a0      	adds	r0, r4, r2
   233b6:	6841      	ldr	r1, [r0, #4]
   233b8:	2207      	movs	r2, #7
   233ba:	0712      	lsls	r2, r2, #28
   233bc:	4391      	bics	r1, r2
   233be:	2201      	movs	r2, #1
   233c0:	0752      	lsls	r2, r2, #29
   233c2:	1889      	adds	r1, r1, r2
   233c4:	6041      	str	r1, [r0, #4]
   233c6:	2015      	movs	r0, #21
   233c8:	04c0      	lsls	r0, r0, #19
   233ca:	1820      	adds	r0, r4, r0
   233cc:	6a81      	ldr	r1, [r0, #40]	; 0x28
   233ce:	2207      	movs	r2, #7
   233d0:	0412      	lsls	r2, r2, #16
   233d2:	4391      	bics	r1, r2
   233d4:	2201      	movs	r2, #1
   233d6:	0452      	lsls	r2, r2, #17
   233d8:	1889      	adds	r1, r1, r2
   233da:	6281      	str	r1, [r0, #40]	; 0x28
   233dc:	07e8      	lsls	r0, r5, #31
   233de:	d00a      	beq.n	233f6 <HAL_SDRAM_LPDDR2_Exit_Self_Refresh+0x7a>
   233e0:	23ab      	movs	r3, #171	; 0xab
   233e2:	220a      	movs	r2, #10
   233e4:	2101      	movs	r1, #1
   233e6:	0030      	movs	r0, r6
   233e8:	f001 f9d0 	bl	2478c <HAL_SDRAM_Write_MR>
   233ec:	2204      	movs	r2, #4
   233ee:	2101      	movs	r1, #1
   233f0:	0030      	movs	r0, r6
   233f2:	f001 f957 	bl	246a4 <HAL_SDRAM_Read_MR>
   233f6:	07a8      	lsls	r0, r5, #30
   233f8:	d50a      	bpl.n	23410 <HAL_SDRAM_LPDDR2_Exit_Self_Refresh+0x94>
   233fa:	23ab      	movs	r3, #171	; 0xab
   233fc:	220a      	movs	r2, #10
   233fe:	2102      	movs	r1, #2
   23400:	0030      	movs	r0, r6
   23402:	f001 f9c3 	bl	2478c <HAL_SDRAM_Write_MR>
   23406:	2204      	movs	r2, #4
   23408:	2102      	movs	r1, #2
   2340a:	0030      	movs	r0, r6
   2340c:	f001 f94a 	bl	246a4 <HAL_SDRAM_Read_MR>
   23410:	0030      	movs	r0, r6
   23412:	f001 f981 	bl	24718 <HAL_SDRAM_Unstall_Ctlr>
   23416:	bc70      	pop	{r4, r5, r6}
   23418:	bc08      	pop	{r3}
   2341a:	4718      	bx	r3
   2341c:	2400      	movs	r4, #0
   2341e:	e7b4      	b.n	2338a <HAL_SDRAM_LPDDR2_Exit_Self_Refresh+0xe>
   23420:	00a80040 	.word	0x00a80040

00023424 <HAL_SDRAM_LPDDR2_HW_Init>:
   23424:	b5f7      	push	{r0, r1, r2, r4, r5, r6, r7, lr}
   23426:	0007      	movs	r7, r0
   23428:	000d      	movs	r5, r1
   2342a:	2800      	cmp	r0, #0
   2342c:	d07d      	beq.n	2352a <HAL_SDRAM_LPDDR2_HW_Init+0x106>
   2342e:	2403      	movs	r4, #3
   23430:	0524      	lsls	r4, r4, #20
   23432:	f7ff fa79 	bl	22928 <HAL_SDRAM_Configure_Chip_Select>
   23436:	4943      	ldr	r1, [pc, #268]	; (23544 <HAL_SDRAM_LPDDR2_HW_Init+0x120>)
   23438:	07e8      	lsls	r0, r5, #31
   2343a:	d004      	beq.n	23446 <HAL_SDRAM_LPDDR2_HW_Init+0x22>
   2343c:	1860      	adds	r0, r4, r1
   2343e:	6802      	ldr	r2, [r0, #0]
   23440:	2301      	movs	r3, #1
   23442:	431a      	orrs	r2, r3
   23444:	6002      	str	r2, [r0, #0]
   23446:	07a8      	lsls	r0, r5, #30
   23448:	d504      	bpl.n	23454 <HAL_SDRAM_LPDDR2_HW_Init+0x30>
   2344a:	1860      	adds	r0, r4, r1
   2344c:	6802      	ldr	r2, [r0, #0]
   2344e:	2302      	movs	r3, #2
   23450:	431a      	orrs	r2, r3
   23452:	6002      	str	r2, [r0, #0]
   23454:	1866      	adds	r6, r4, r1
   23456:	6830      	ldr	r0, [r6, #0]
   23458:	2139      	movs	r1, #57	; 0x39
   2345a:	0109      	lsls	r1, r1, #4
   2345c:	4388      	bics	r0, r1
   2345e:	30ff      	adds	r0, #255	; 0xff
   23460:	3011      	adds	r0, #17
   23462:	6030      	str	r0, [r6, #0]
   23464:	6930      	ldr	r0, [r6, #16]
   23466:	2101      	movs	r1, #1
   23468:	0389      	lsls	r1, r1, #14
   2346a:	4308      	orrs	r0, r1
   2346c:	6130      	str	r0, [r6, #16]
   2346e:	9902      	ldr	r1, [sp, #8]
   23470:	2001      	movs	r0, #1
   23472:	f7ff fa69 	bl	22948 <HAL_SDRAM_DDR_Wait>
   23476:	6930      	ldr	r0, [r6, #16]
   23478:	2101      	movs	r1, #1
   2347a:	0349      	lsls	r1, r1, #13
   2347c:	4308      	orrs	r0, r1
   2347e:	6130      	str	r0, [r6, #16]
   23480:	9902      	ldr	r1, [sp, #8]
   23482:	20c8      	movs	r0, #200	; 0xc8
   23484:	f7ff fa60 	bl	22948 <HAL_SDRAM_DDR_Wait>
   23488:	2300      	movs	r3, #0
   2348a:	223f      	movs	r2, #63	; 0x3f
   2348c:	0029      	movs	r1, r5
   2348e:	0038      	movs	r0, r7
   23490:	f001 f97c 	bl	2478c <HAL_SDRAM_Write_MR>
   23494:	9902      	ldr	r1, [sp, #8]
   23496:	2001      	movs	r0, #1
   23498:	f7ff fa56 	bl	22948 <HAL_SDRAM_DDR_Wait>
   2349c:	9902      	ldr	r1, [sp, #8]
   2349e:	200a      	movs	r0, #10
   234a0:	f7ff fa52 	bl	22948 <HAL_SDRAM_DDR_Wait>
   234a4:	07e8      	lsls	r0, r5, #31
   234a6:	d009      	beq.n	234bc <HAL_SDRAM_LPDDR2_HW_Init+0x98>
   234a8:	23ff      	movs	r3, #255	; 0xff
   234aa:	220a      	movs	r2, #10
   234ac:	2101      	movs	r1, #1
   234ae:	0038      	movs	r0, r7
   234b0:	f001 f96c 	bl	2478c <HAL_SDRAM_Write_MR>
   234b4:	9902      	ldr	r1, [sp, #8]
   234b6:	2001      	movs	r0, #1
   234b8:	f7ff fa46 	bl	22948 <HAL_SDRAM_DDR_Wait>
   234bc:	07a8      	lsls	r0, r5, #30
   234be:	d509      	bpl.n	234d4 <HAL_SDRAM_LPDDR2_HW_Init+0xb0>
   234c0:	23ff      	movs	r3, #255	; 0xff
   234c2:	220a      	movs	r2, #10
   234c4:	2102      	movs	r1, #2
   234c6:	0038      	movs	r0, r7
   234c8:	f001 f960 	bl	2478c <HAL_SDRAM_Write_MR>
   234cc:	9902      	ldr	r1, [sp, #8]
   234ce:	2001      	movs	r0, #1
   234d0:	f7ff fa3a 	bl	22948 <HAL_SDRAM_DDR_Wait>
   234d4:	0029      	movs	r1, r5
   234d6:	0038      	movs	r0, r7
   234d8:	f001 f934 	bl	24744 <HAL_SDRAM_Update_MR_Settings>
   234dc:	0038      	movs	r0, r7
   234de:	f00e fd1b 	bl	31f18 <ddr_get_params>
   234e2:	6880      	ldr	r0, [r0, #8]
   234e4:	4a18      	ldr	r2, [pc, #96]	; (23548 <HAL_SDRAM_LPDDR2_HW_Init+0x124>)
   234e6:	4919      	ldr	r1, [pc, #100]	; (2354c <HAL_SDRAM_LPDDR2_HW_Init+0x128>)
   234e8:	2805      	cmp	r0, #5
   234ea:	d020      	beq.n	2352e <HAL_SDRAM_LPDDR2_HW_Init+0x10a>
   234ec:	1860      	adds	r0, r4, r1
   234ee:	6903      	ldr	r3, [r0, #16]
   234f0:	4013      	ands	r3, r2
   234f2:	4a17      	ldr	r2, [pc, #92]	; (23550 <HAL_SDRAM_LPDDR2_HW_Init+0x12c>)
   234f4:	189a      	adds	r2, r3, r2
   234f6:	6102      	str	r2, [r0, #16]
   234f8:	1860      	adds	r0, r4, r1
   234fa:	6901      	ldr	r1, [r0, #16]
   234fc:	22c0      	movs	r2, #192	; 0xc0
   234fe:	4391      	bics	r1, r2
   23500:	3180      	adds	r1, #128	; 0x80
   23502:	6101      	str	r1, [r0, #16]
   23504:	07e8      	lsls	r0, r5, #31
   23506:	d004      	beq.n	23512 <HAL_SDRAM_LPDDR2_HW_Init+0xee>
   23508:	6830      	ldr	r0, [r6, #0]
   2350a:	2101      	movs	r1, #1
   2350c:	0409      	lsls	r1, r1, #16
   2350e:	4308      	orrs	r0, r1
   23510:	6030      	str	r0, [r6, #0]
   23512:	07a8      	lsls	r0, r5, #30
   23514:	d504      	bpl.n	23520 <HAL_SDRAM_LPDDR2_HW_Init+0xfc>
   23516:	6830      	ldr	r0, [r6, #0]
   23518:	2101      	movs	r1, #1
   2351a:	0449      	lsls	r1, r1, #17
   2351c:	4308      	orrs	r0, r1
   2351e:	6030      	str	r0, [r6, #0]
   23520:	b003      	add	sp, #12
   23522:	bcf0      	pop	{r4, r5, r6, r7}
   23524:	bc08      	pop	{r3}
   23526:	4718      	bx	r3
   23528:	e7ff      	b.n	2352a <HAL_SDRAM_LPDDR2_HW_Init+0x106>
   2352a:	2400      	movs	r4, #0
   2352c:	e781      	b.n	23432 <HAL_SDRAM_LPDDR2_HW_Init+0xe>
   2352e:	1860      	adds	r0, r4, r1
   23530:	6903      	ldr	r3, [r0, #16]
   23532:	4013      	ands	r3, r2
   23534:	4a07      	ldr	r2, [pc, #28]	; (23554 <HAL_SDRAM_LPDDR2_HW_Init+0x130>)
   23536:	189a      	adds	r2, r3, r2
   23538:	6102      	str	r2, [r0, #16]
   2353a:	6942      	ldr	r2, [r0, #20]
   2353c:	2310      	movs	r3, #16
   2353e:	431a      	orrs	r2, r3
   23540:	6142      	str	r2, [r0, #20]
   23542:	e7d9      	b.n	234f8 <HAL_SDRAM_LPDDR2_HW_Init+0xd4>
   23544:	00a80000 	.word	0x00a80000
   23548:	ffff80f3 	.word	0xffff80f3
   2354c:	00a80040 	.word	0x00a80040
   23550:	00002f04 	.word	0x00002f04
   23554:	00002004 	.word	0x00002004

00023558 <HAL_SDRAM_LPDDR2_Init>:
   23558:	4770      	bx	lr
	...

0002355c <HAL_SDRAM_LPDDR2_Manual_HW_IO_Cal>:
   2355c:	b570      	push	{r4, r5, r6, lr}
   2355e:	2800      	cmp	r0, #0
   23560:	d001      	beq.n	23566 <HAL_SDRAM_LPDDR2_Manual_HW_IO_Cal+0xa>
   23562:	2005      	movs	r0, #5
   23564:	0500      	lsls	r0, r0, #20
   23566:	4919      	ldr	r1, [pc, #100]	; (235cc <HAL_SDRAM_LPDDR2_Manual_HW_IO_Cal+0x70>)
   23568:	1844      	adds	r4, r0, r1
   2356a:	6a20      	ldr	r0, [r4, #32]
   2356c:	4918      	ldr	r1, [pc, #96]	; (235d0 <HAL_SDRAM_LPDDR2_Manual_HW_IO_Cal+0x74>)
   2356e:	4008      	ands	r0, r1
   23570:	6220      	str	r0, [r4, #32]
   23572:	2100      	movs	r1, #0
   23574:	2041      	movs	r0, #65	; 0x41
   23576:	f7ff f9e7 	bl	22948 <HAL_SDRAM_DDR_Wait>
   2357a:	6b60      	ldr	r0, [r4, #52]	; 0x34
   2357c:	0340      	lsls	r0, r0, #13
   2357e:	d5fc      	bpl.n	2357a <HAL_SDRAM_LPDDR2_Manual_HW_IO_Cal+0x1e>
   23580:	6a20      	ldr	r0, [r4, #32]
   23582:	4d14      	ldr	r5, [pc, #80]	; (235d4 <HAL_SDRAM_LPDDR2_Manual_HW_IO_Cal+0x78>)
   23584:	07c0      	lsls	r0, r0, #31
   23586:	d002      	beq.n	2358e <HAL_SDRAM_LPDDR2_Manual_HW_IO_Cal+0x32>
   23588:	6a20      	ldr	r0, [r4, #32]
   2358a:	0780      	lsls	r0, r0, #30
   2358c:	d408      	bmi.n	235a0 <HAL_SDRAM_LPDDR2_Manual_HW_IO_Cal+0x44>
   2358e:	6a20      	ldr	r0, [r4, #32]
   23590:	2103      	movs	r1, #3
   23592:	4028      	ands	r0, r5
   23594:	4308      	orrs	r0, r1
   23596:	6220      	str	r0, [r4, #32]
   23598:	2100      	movs	r1, #0
   2359a:	200a      	movs	r0, #10
   2359c:	f7ff f9d4 	bl	22948 <HAL_SDRAM_DDR_Wait>
   235a0:	6a20      	ldr	r0, [r4, #32]
   235a2:	2101      	movs	r1, #1
   235a4:	4028      	ands	r0, r5
   235a6:	07c9      	lsls	r1, r1, #31
   235a8:	4308      	orrs	r0, r1
   235aa:	6220      	str	r0, [r4, #32]
   235ac:	6b60      	ldr	r0, [r4, #52]	; 0x34
   235ae:	0340      	lsls	r0, r0, #13
   235b0:	d5fc      	bpl.n	235ac <HAL_SDRAM_LPDDR2_Manual_HW_IO_Cal+0x50>
   235b2:	6a20      	ldr	r0, [r4, #32]
   235b4:	4908      	ldr	r1, [pc, #32]	; (235d8 <HAL_SDRAM_LPDDR2_Manual_HW_IO_Cal+0x7c>)
   235b6:	4008      	ands	r0, r1
   235b8:	6220      	str	r0, [r4, #32]
   235ba:	6a20      	ldr	r0, [r4, #32]
   235bc:	2101      	movs	r1, #1
   235be:	4028      	ands	r0, r5
   235c0:	0789      	lsls	r1, r1, #30
   235c2:	4308      	orrs	r0, r1
   235c4:	6220      	str	r0, [r4, #32]
   235c6:	bc70      	pop	{r4, r5, r6}
   235c8:	bc08      	pop	{r3}
   235ca:	4718      	bx	r3
   235cc:	1ab000c0 	.word	0x1ab000c0
   235d0:	b31f377f 	.word	0xb31f377f
   235d4:	f31f377f 	.word	0xf31f377f
   235d8:	731f377f 	.word	0x731f377f

000235dc <HAL_SDRAM_LPDDR2_Post_Update_Power_Mode>:
   235dc:	b570      	push	{r4, r5, r6, lr}
   235de:	2800      	cmp	r0, #0
   235e0:	d01c      	beq.n	2361c <HAL_SDRAM_LPDDR2_Post_Update_Power_Mode+0x40>
   235e2:	2303      	movs	r3, #3
   235e4:	051b      	lsls	r3, r3, #20
   235e6:	4c0e      	ldr	r4, [pc, #56]	; (23620 <HAL_SDRAM_LPDDR2_Post_Update_Power_Mode+0x44>)
   235e8:	42a1      	cmp	r1, r4
   235ea:	d801      	bhi.n	235f0 <HAL_SDRAM_LPDDR2_Post_Update_Power_Mode+0x14>
   235ec:	42a2      	cmp	r2, r4
   235ee:	d90b      	bls.n	23608 <HAL_SDRAM_LPDDR2_Post_Update_Power_Mode+0x2c>
   235f0:	4c0c      	ldr	r4, [pc, #48]	; (23624 <HAL_SDRAM_LPDDR2_Post_Update_Power_Mode+0x48>)
   235f2:	7824      	ldrb	r4, [r4, #0]
   235f4:	2c00      	cmp	r4, #0
   235f6:	d007      	beq.n	23608 <HAL_SDRAM_LPDDR2_Post_Update_Power_Mode+0x2c>
   235f8:	2405      	movs	r4, #5
   235fa:	0564      	lsls	r4, r4, #21
   235fc:	191b      	adds	r3, r3, r4
   235fe:	685c      	ldr	r4, [r3, #4]
   23600:	2501      	movs	r5, #1
   23602:	02ed      	lsls	r5, r5, #11
   23604:	432c      	orrs	r4, r5
   23606:	605c      	str	r4, [r3, #4]
   23608:	4b07      	ldr	r3, [pc, #28]	; (23628 <HAL_SDRAM_LPDDR2_Post_Update_Power_Mode+0x4c>)
   2360a:	4299      	cmp	r1, r3
   2360c:	d203      	bcs.n	23616 <HAL_SDRAM_LPDDR2_Post_Update_Power_Mode+0x3a>
   2360e:	429a      	cmp	r2, r3
   23610:	d101      	bne.n	23616 <HAL_SDRAM_LPDDR2_Post_Update_Power_Mode+0x3a>
   23612:	f7ff f981 	bl	22918 <HAL_SDRAM_CDC_SW_Recalibration>
   23616:	bc70      	pop	{r4, r5, r6}
   23618:	bc08      	pop	{r3}
   2361a:	4718      	bx	r3
   2361c:	2300      	movs	r3, #0
   2361e:	e7e2      	b.n	235e6 <HAL_SDRAM_LPDDR2_Post_Update_Power_Mode+0xa>
   23620:	00030d40 	.word	0x00030d40
   23624:	0003ac1d 	.word	0x0003ac1d
   23628:	0001046b 	.word	0x0001046b

0002362c <HAL_SDRAM_LPDDR2_Pre_Update_Power_Mode>:
   2362c:	b570      	push	{r4, r5, r6, lr}
   2362e:	0006      	movs	r6, r0
   23630:	000c      	movs	r4, r1
   23632:	0015      	movs	r5, r2
   23634:	2800      	cmp	r0, #0
   23636:	d025      	beq.n	23684 <HAL_SDRAM_LPDDR2_Pre_Update_Power_Mode+0x58>
   23638:	2103      	movs	r1, #3
   2363a:	0509      	lsls	r1, r1, #20
   2363c:	4812      	ldr	r0, [pc, #72]	; (23688 <HAL_SDRAM_LPDDR2_Pre_Update_Power_Mode+0x5c>)
   2363e:	4284      	cmp	r4, r0
   23640:	d801      	bhi.n	23646 <HAL_SDRAM_LPDDR2_Pre_Update_Power_Mode+0x1a>
   23642:	4285      	cmp	r5, r0
   23644:	d90b      	bls.n	2365e <HAL_SDRAM_LPDDR2_Pre_Update_Power_Mode+0x32>
   23646:	4811      	ldr	r0, [pc, #68]	; (2368c <HAL_SDRAM_LPDDR2_Pre_Update_Power_Mode+0x60>)
   23648:	7800      	ldrb	r0, [r0, #0]
   2364a:	2800      	cmp	r0, #0
   2364c:	d007      	beq.n	2365e <HAL_SDRAM_LPDDR2_Pre_Update_Power_Mode+0x32>
   2364e:	2005      	movs	r0, #5
   23650:	0540      	lsls	r0, r0, #21
   23652:	1808      	adds	r0, r1, r0
   23654:	6841      	ldr	r1, [r0, #4]
   23656:	2201      	movs	r2, #1
   23658:	02d2      	lsls	r2, r2, #11
   2365a:	4391      	bics	r1, r2
   2365c:	6041      	str	r1, [r0, #4]
   2365e:	480c      	ldr	r0, [pc, #48]	; (23690 <HAL_SDRAM_LPDDR2_Pre_Update_Power_Mode+0x64>)
   23660:	4284      	cmp	r4, r0
   23662:	d804      	bhi.n	2366e <HAL_SDRAM_LPDDR2_Pre_Update_Power_Mode+0x42>
   23664:	4285      	cmp	r5, r0
   23666:	d902      	bls.n	2366e <HAL_SDRAM_LPDDR2_Pre_Update_Power_Mode+0x42>
   23668:	0030      	movs	r0, r6
   2366a:	f000 fb39 	bl	23ce0 <HAL_SDRAM_Manual_HW_IO_Cal>
   2366e:	4809      	ldr	r0, [pc, #36]	; (23694 <HAL_SDRAM_LPDDR2_Pre_Update_Power_Mode+0x68>)
   23670:	4284      	cmp	r4, r0
   23672:	d104      	bne.n	2367e <HAL_SDRAM_LPDDR2_Pre_Update_Power_Mode+0x52>
   23674:	4285      	cmp	r5, r0
   23676:	d202      	bcs.n	2367e <HAL_SDRAM_LPDDR2_Pre_Update_Power_Mode+0x52>
   23678:	0030      	movs	r0, r6
   2367a:	f7ff f94d 	bl	22918 <HAL_SDRAM_CDC_SW_Recalibration>
   2367e:	bc70      	pop	{r4, r5, r6}
   23680:	bc08      	pop	{r3}
   23682:	4718      	bx	r3
   23684:	2100      	movs	r1, #0
   23686:	e7d9      	b.n	2363c <HAL_SDRAM_LPDDR2_Pre_Update_Power_Mode+0x10>
   23688:	00030d40 	.word	0x00030d40
   2368c:	0003ac1d 	.word	0x0003ac1d
   23690:	00028870 	.word	0x00028870
   23694:	0001046b 	.word	0x0001046b

00023698 <HAL_SDRAM_LPDDR2_Ram_Size_Detection>:
   23698:	2001      	movs	r0, #1
   2369a:	4770      	bx	lr

0002369c <HAL_SDRAM_LPDDR2_Read_MR>:
   2369c:	b410      	push	{r4}
   2369e:	2800      	cmp	r0, #0
   236a0:	d001      	beq.n	236a6 <HAL_SDRAM_LPDDR2_Read_MR+0xa>
   236a2:	2003      	movs	r0, #3
   236a4:	0500      	lsls	r0, r0, #20
   236a6:	2903      	cmp	r1, #3
   236a8:	d100      	bne.n	236ac <HAL_SDRAM_LPDDR2_Read_MR+0x10>
   236aa:	2101      	movs	r1, #1
   236ac:	0612      	lsls	r2, r2, #24
   236ae:	048b      	lsls	r3, r1, #18
   236b0:	431a      	orrs	r2, r3
   236b2:	2301      	movs	r3, #1
   236b4:	045b      	lsls	r3, r3, #17
   236b6:	18d2      	adds	r2, r2, r3
   236b8:	4b0a      	ldr	r3, [pc, #40]	; (236e4 <HAL_SDRAM_LPDDR2_Read_MR+0x48>)
   236ba:	401a      	ands	r2, r3
   236bc:	2315      	movs	r3, #21
   236be:	04db      	lsls	r3, r3, #19
   236c0:	18c0      	adds	r0, r0, r3
   236c2:	6943      	ldr	r3, [r0, #20]
   236c4:	4c08      	ldr	r4, [pc, #32]	; (236e8 <HAL_SDRAM_LPDDR2_Read_MR+0x4c>)
   236c6:	4023      	ands	r3, r4
   236c8:	431a      	orrs	r2, r3
   236ca:	6142      	str	r2, [r0, #20]
   236cc:	6942      	ldr	r2, [r0, #20]
   236ce:	0392      	lsls	r2, r2, #14
   236d0:	d4fc      	bmi.n	236cc <HAL_SDRAM_LPDDR2_Read_MR+0x30>
   236d2:	2901      	cmp	r1, #1
   236d4:	d004      	beq.n	236e0 <HAL_SDRAM_LPDDR2_Read_MR+0x44>
   236d6:	6a40      	ldr	r0, [r0, #36]	; 0x24
   236d8:	bc10      	pop	{r4}
   236da:	0600      	lsls	r0, r0, #24
   236dc:	0e00      	lsrs	r0, r0, #24
   236de:	4770      	bx	lr
   236e0:	6a00      	ldr	r0, [r0, #32]
   236e2:	e7f9      	b.n	236d8 <HAL_SDRAM_LPDDR2_Read_MR+0x3c>
   236e4:	ff0e0000 	.word	0xff0e0000
   236e8:	00f1ffff 	.word	0x00f1ffff

000236ec <HAL_SDRAM_LPDDR2_Set_Device_AC_Parameters>:
   236ec:	b5f7      	push	{r0, r1, r2, r4, r5, r6, r7, lr}
   236ee:	0010      	movs	r0, r2
   236f0:	b08a      	sub	sp, #40	; 0x28
   236f2:	d021      	beq.n	23738 <HAL_SDRAM_LPDDR2_Set_Device_AC_Parameters+0x4c>
   236f4:	2103      	movs	r1, #3
   236f6:	0509      	lsls	r1, r1, #20
   236f8:	9105      	str	r1, [sp, #20]
   236fa:	f00e fc0d 	bl	31f18 <ddr_get_params>
   236fe:	0004      	movs	r4, r0
   23700:	48ff      	ldr	r0, [pc, #1020]	; (23b00 <HAL_SDRAM_LPDDR2_Set_Device_AC_Parameters+0x414>)
   23702:	990b      	ldr	r1, [sp, #44]	; 0x2c
   23704:	f7fd f9f4 	bl	20af0 <__rt_SIGFPE+0x10>
   23708:	9000      	str	r0, [sp, #0]
   2370a:	48fd      	ldr	r0, [pc, #1012]	; (23b00 <HAL_SDRAM_LPDDR2_Set_Device_AC_Parameters+0x414>)
   2370c:	68a6      	ldr	r6, [r4, #8]
   2370e:	990b      	ldr	r1, [sp, #44]	; 0x2c
   23710:	f7fd f9ee 	bl	20af0 <__rt_SIGFPE+0x10>
   23714:	1e45      	subs	r5, r0, #1
   23716:	6f60      	ldr	r0, [r4, #116]	; 0x74
   23718:	2e05      	cmp	r6, #5
   2371a:	d00f      	beq.n	2373c <HAL_SDRAM_LPDDR2_Set_Device_AC_Parameters+0x50>
   2371c:	9900      	ldr	r1, [sp, #0]
   2371e:	1940      	adds	r0, r0, r5
   23720:	f7fd f9e6 	bl	20af0 <__rt_SIGFPE+0x10>
   23724:	0001      	movs	r1, r0
   23726:	2802      	cmp	r0, #2
   23728:	d800      	bhi.n	2372c <HAL_SDRAM_LPDDR2_Set_Device_AC_Parameters+0x40>
   2372a:	2002      	movs	r0, #2
   2372c:	1e80      	subs	r0, r0, #2
   2372e:	2802      	cmp	r0, #2
   23730:	d918      	bls.n	23764 <HAL_SDRAM_LPDDR2_Set_Device_AC_Parameters+0x78>
   23732:	2902      	cmp	r1, #2
   23734:	d80f      	bhi.n	23756 <HAL_SDRAM_LPDDR2_Set_Device_AC_Parameters+0x6a>
   23736:	e012      	b.n	2375e <HAL_SDRAM_LPDDR2_Set_Device_AC_Parameters+0x72>
   23738:	2100      	movs	r1, #0
   2373a:	e7dd      	b.n	236f8 <HAL_SDRAM_LPDDR2_Set_Device_AC_Parameters+0xc>
   2373c:	9900      	ldr	r1, [sp, #0]
   2373e:	1940      	adds	r0, r0, r5
   23740:	f7fd f9d6 	bl	20af0 <__rt_SIGFPE+0x10>
   23744:	0001      	movs	r1, r0
   23746:	2804      	cmp	r0, #4
   23748:	d800      	bhi.n	2374c <HAL_SDRAM_LPDDR2_Set_Device_AC_Parameters+0x60>
   2374a:	2004      	movs	r0, #4
   2374c:	1e80      	subs	r0, r0, #2
   2374e:	2802      	cmp	r0, #2
   23750:	d908      	bls.n	23764 <HAL_SDRAM_LPDDR2_Set_Device_AC_Parameters+0x78>
   23752:	2904      	cmp	r1, #4
   23754:	d901      	bls.n	2375a <HAL_SDRAM_LPDDR2_Set_Device_AC_Parameters+0x6e>
   23756:	000e      	movs	r6, r1
   23758:	e002      	b.n	23760 <HAL_SDRAM_LPDDR2_Set_Device_AC_Parameters+0x74>
   2375a:	2604      	movs	r6, #4
   2375c:	e000      	b.n	23760 <HAL_SDRAM_LPDDR2_Set_Device_AC_Parameters+0x74>
   2375e:	2602      	movs	r6, #2
   23760:	1eb6      	subs	r6, r6, #2
   23762:	e000      	b.n	23766 <HAL_SDRAM_LPDDR2_Set_Device_AC_Parameters+0x7a>
   23764:	2602      	movs	r6, #2
   23766:	6f20      	ldr	r0, [r4, #112]	; 0x70
   23768:	9900      	ldr	r1, [sp, #0]
   2376a:	1940      	adds	r0, r0, r5
   2376c:	f7fd f9c0 	bl	20af0 <__rt_SIGFPE+0x10>
   23770:	2808      	cmp	r0, #8
   23772:	d901      	bls.n	23778 <HAL_SDRAM_LPDDR2_Set_Device_AC_Parameters+0x8c>
   23774:	281f      	cmp	r0, #31
   23776:	d203      	bcs.n	23780 <HAL_SDRAM_LPDDR2_Set_Device_AC_Parameters+0x94>
   23778:	2808      	cmp	r0, #8
   2377a:	d802      	bhi.n	23782 <HAL_SDRAM_LPDDR2_Set_Device_AC_Parameters+0x96>
   2377c:	2008      	movs	r0, #8
   2377e:	e000      	b.n	23782 <HAL_SDRAM_LPDDR2_Set_Device_AC_Parameters+0x96>
   23780:	201f      	movs	r0, #31
   23782:	0007      	movs	r7, r0
   23784:	6c20      	ldr	r0, [r4, #64]	; 0x40
   23786:	9900      	ldr	r1, [sp, #0]
   23788:	1940      	adds	r0, r0, r5
   2378a:	f7fd f9b1 	bl	20af0 <__rt_SIGFPE+0x10>
   2378e:	2803      	cmp	r0, #3
   23790:	d800      	bhi.n	23794 <HAL_SDRAM_LPDDR2_Set_Device_AC_Parameters+0xa8>
   23792:	2003      	movs	r0, #3
   23794:	9002      	str	r0, [sp, #8]
   23796:	6b60      	ldr	r0, [r4, #52]	; 0x34
   23798:	9900      	ldr	r1, [sp, #0]
   2379a:	1940      	adds	r0, r0, r5
   2379c:	f7fd f9a8 	bl	20af0 <__rt_SIGFPE+0x10>
   237a0:	2802      	cmp	r0, #2
   237a2:	d800      	bhi.n	237a6 <HAL_SDRAM_LPDDR2_Set_Device_AC_Parameters+0xba>
   237a4:	2002      	movs	r0, #2
   237a6:	9001      	str	r0, [sp, #4]
   237a8:	6920      	ldr	r0, [r4, #16]
   237aa:	9900      	ldr	r1, [sp, #0]
   237ac:	1940      	adds	r0, r0, r5
   237ae:	f7fd f99f 	bl	20af0 <__rt_SIGFPE+0x10>
   237b2:	2803      	cmp	r0, #3
   237b4:	d800      	bhi.n	237b8 <HAL_SDRAM_LPDDR2_Set_Device_AC_Parameters+0xcc>
   237b6:	2003      	movs	r0, #3
   237b8:	0771      	lsls	r1, r6, #29
   237ba:	063a      	lsls	r2, r7, #24
   237bc:	4311      	orrs	r1, r2
   237be:	9a02      	ldr	r2, [sp, #8]
   237c0:	0027      	movs	r7, r4
   237c2:	0512      	lsls	r2, r2, #20
   237c4:	4311      	orrs	r1, r2
   237c6:	9a01      	ldr	r2, [sp, #4]
   237c8:	3780      	adds	r7, #128	; 0x80
   237ca:	0312      	lsls	r2, r2, #12
   237cc:	4311      	orrs	r1, r2
   237ce:	4301      	orrs	r1, r0
   237d0:	9107      	str	r1, [sp, #28]
   237d2:	68fb      	ldr	r3, [r7, #12]
   237d4:	2107      	movs	r1, #7
   237d6:	0008      	movs	r0, r1
   237d8:	2b07      	cmp	r3, #7
